(lp1
(lp2
(lp3
F-0.30149710246108652
aF0.30433204779303663
aF-0.027536205077495053
aF-1.0010762217549156
aF0.21481763496405956
aa(lp4
F-0.22147952929717868
aF-0.77776657036177621
aF-0.11221789118562302
aF-0.36196373235876628
aF0.76036224863702651
aa(lp5
F0.084329401278386493
aF0.28724904155508513
aF-0.84878652752590045
aF-1.0100273073959642
aF0.075436433056856433
aaa(lp6
(lp7
F-0.031317751466581868
aF-0.42045178409707834
aF0.60569656077987966
aF-0.21408744544068306
aa(lp8
F0.50211796746090887
aF-0.39845585861220872
aF-0.43909407946024076
aF-0.95315109624086047
aa(lp9
F0.39060198522917949
aF-0.74984871342686399
aF0.72687195231344248
aF-0.88829162612227208
aa(lp10
F0.39895478650785998
aF0.90787032501687004
aF0.27315088718161062
aF-0.04714251096507234
aa(lp11
F-1.0119827240899626
aF-0.19013703543464583
aF0.35344940125779462
aF0.068885044782061242
aa(lp12
F0.17713541883347919
aF-0.053488870973015058
aF-0.93773295901219123
aF0.4316131540909196
aaa.