(lp1
(lp2
(lp3
F0.5978044751617102
aF10.287962288371819
aF1.3323268334795839
aF2.4956126587386582
aF-9.7352160500055263
aa(lp4
F11.018197486370816
aF-6.370060642165897
aF-11.147262015546399
aF0.78277171029104109
aF-0.19064108507936139
aa(lp5
F-3.3282462264950978
aF-2.6866815936114299
aF8.1231123879770752
aF0.49548797916208093
aF2.8347210177372513
aaa(lp6
(lp7
F6.4456530009859669
aF-6.1135331056292355
aF-7.8219273222161894
aF6.065201476533165
aa(lp8
F-4.0534432150412938
aF8.0681807535970922
aF-8.0573366554916834
aF-3.0081111172834021
aa(lp9
F-9.4418629086911015
aF0.38471089082141408
aF3.4051769906074143
aF8.240971394859093
aa(lp10
F-0.41219702299475891
aF0.50232573784913515
aF-2.8326110940962694
aF-4.4679119044102977
aa(lp11
F-0.13059800472330491
aF-7.0492816174862565
aF6.8207554307081253
aF-3.0238233234079286
aa(lp12
F-1.3127405655016124
aF-0.53916401914649004
aF0.13673958317109605
aF-4.9469385783559172
aaa.