(lp1
(lp2
(lp3
F-1.3347951431657399
aF1.7490623701528507
aF-0.025501318180617905
aF0.2557238420546486
aF-1.3901815530259496
aa(lp4
F5.0020968830837953
aF-1.6276620012749372
aF-2.0275554274838488
aF0.24182237125002667
aF0.66283726785389097
aa(lp5
F-1.6235217358139435
aF0.058807013114989294
aF0.62159954644887072
aF0.050000665353818079
aF0.64511889262305389
aaa(lp6
(lp7
F4.1380854039376125
aF-3.7575763096962165
aF-2.8108618612658591
aF1.0313334978141735
aa(lp8
F-2.2213000077179497
aF1.6984765125594186
aF-0.72395021846991503
aF-1.187001196778217
aa(lp9
F-2.5863343421583482
aF0.47854282658606284
aF0.85986729326065459
aF-0.038905919947911968
aa(lp10
F-0.58783373947021633
aF-0.17401951538049276
aF-0.50331291498429442
aF-0.75530154897744728
aa(lp11
F-0.76647437240781402
aF-1.7809833095343628
aF0.050607141795504171
aF-0.45923357413674665
aa(lp12
F-0.88901065850135974
aF-0.040965262924665714
aF0.60603772273573497
aF-0.11995576086927452
aaa.