(lp1
(lp2
I1
aF0.27063806609897423
aI0
aF0.42668798867380331
aI1
aF0.87103764173378129
aI3
aF0.70967741935483875
aI2
aF1
aI4
aF0.52000000000000002
aI1
aF1
aa(lp3
I1
aF0.28826455586594335
aI0
aF0.38378816978203512
aI1
aF0.66782200831659477
aI3
aF0.73333333333333328
aI2
aF0.9375
aI4
aF1
aI1
aF0.75
aa(lp4
I1
aF0.27497266058556025
aI0
aF0.4104136736814481
aI1
aF0.65507507842274282
aI3
aF0.70967741935483875
aI2
aF1
aI4
aF1
aI1
aF0.7142857142857143
aa(lp5
I1
aF0.73301130612842214
aI1
aF0.32441993592218898
aI0
aF0.25497402739444219
aI2
aF0.45833333333333331
aI4
aF1
aI1
aF1
aI1
aF0.875
aa(lp6
I1
aF0.45628074877184888
aI0
aF0.36454647267981499
aI1
aF0.7451297699251529
aI3
aF0.66666666666666663
aI2
aF0.9375
aI4
aF0.90000000000000002
aI1
aF0.93333333333333335
aa(lp7
I1
aF0.36460992623028032
aI0
aF0.33668559681681287
aI1
aF0.78497047509377915
aI3
aF0.84615384615384615
aI2
aF0.90909090909090906
aI4
aF0.91666666666666663
aI1
aF1
aa(lp8
I1
aF0.20184487668474804
aI0
aF0.44112960535799028
aI1
aF0.78642794712303299
aI3
aF0.6875
aI2
aF1
aI4
aF0.9285714285714286
aI1
aF1
aa(lp9
I1
aF0.39027920257028792
aI0
aF0.41648963312692455
aI1
aF0.67707413878734279
aI3
aF0.66666666666666663
aI2
aF1
aI4
aF1
aI1
aF0.75
aa(lp10
I1
aF0.16842636652949616
aI0
aF0.45959050843239135
aI1
aF0.24107393140397093
aI3
aF0.67741935483870963
aI2
aF1
aI3
aF1
aI1
aF0.5357142857142857
aa(lp11
I1
aF0.24250035685759452
aI0
aF0.32745176925688702
aI1
aF0.49505827072512332
aI3
aF0.88
aI2
aF0.95238095238095233
aI4
aF1
aI1
aF0.625
aa(lp12
I1
aF0.54187919456174083
aI0
aF0.4022742436259259
aI1
aF0.88770851394350048
aI3
aF0.62857142857142856
aI2
aF0.9375
aI1
aF0.59999999999999998
aI1
aF1
aa(lp13
I1
aF0.16353213226206609
aI0
aF0.75588408649370364
aI1
aF0.30672790343909262
aI2
aF0.48888888888888887
aI1
aF0
aI3
aF1
aI1
aF0.5357142857142857
aa(lp14
I1
aF0.20047856974158174
aI0
aF0.3290636254729149
aI1
aF0.80629309824334638
aI3
aF0.88
aI2
aF0.95238095238095233
aI4
aF0.8666666666666667
aI1
aF1
aa(lp15
I1
aF0.61172331161815729
aI1
aF0.2335789433321136
aI1
aF0.79342366212601867
aI2
aF0.47826086956521741
aI4
aF1
aI4
aF0.875
aI1
aF1
aa(lp16
I1
aF0.39297077674425906
aI0
aF0.27855248865851656
aI1
aF0.66481827542227345
aI3
aF0.95454545454545459
aI2
aF0.84615384615384615
aI4
aF1
aI1
aF0.7142857142857143
aa(lp17
I1
aF0.42556126356430746
aI1
aF0.16734285225615531
aI1
aF0.88390588822944471
aI2
aF0.48888888888888887
aI4
aF0.75
aI1
aF0.54545454545454541
aI1
aF1
aa(lp18
I1
aF0.31116117095762719
aI1
aF0.089205288398738425
aI1
aF0.96146468310855782
aI2
aF0.75
aI3
aF0.65384615384615385
aI1
aF0.5
aI1
aF1
aa(lp19
I1
aF0.28937660908827012
aI0
aF0.25778569692808229
aI1
aF0.95982853054041994
aI3
aF0.94444444444444442
aI2
aF0.7857142857142857
aI1
aF0.5
aI1
aF1
aa(lp20
I1
aF0.33071887160922275
aI0
aF0.39810906964998249
aI1
aF0.78488177537140402
aI3
aF0.6875
aI2
aF0.9375
aI4
aF0.91666666666666663
aI1
aF1
aa(lp21
I1
aF0.25907072503885897
aI0
aF0.47916036239783411
aI1
aF0.80594069511582744
aI3
aF0.6470588235294118
aI2
aF1
aI4
aF0.9285714285714286
aI1
aF1
aa(lp22
I1
aF0.45654149906275387
aI0
aF0.38909041968007263
aI1
aF0.94192297827216809
aI3
aF0.66666666666666663
aI2
aF0.9375
aI1
aF0.54545454545454541
aI1
aF1
aa(lp23
I1
aF0.45635966161595287
aI1
aF0.38037240563087149
aI1
aF0.91014357283917446
aI2
aF0.45833333333333331
aI4
aF1
aI1
aF0.54545454545454541
aI1
aF1
aa(lp24
I1
aF0.30224382388317428
aI1
aF0.085304059723886994
aI0
aF0.78260046358364366
aI2
aF0.77777777777777779
aI3
aF0.6428571428571429
aI1
aF0.5357142857142857
aI1
aF0
aa(lp25
I1
aF0.16734326195208937
aI0
aF0.45388508953844886
aI1
aF0.73794809728899469
aI3
aF0.67741935483870963
aI2
aF1
aI4
aF0.91666666666666663
aI1
aF0.88235294117647056
aa(lp26
I1
aF0.54454395326353389
aI1
aF0.408282369124358
aI1
aF0.68878712822544497
aI2
aF0.45833333333333331
aI4
aF1
aI4
aF1
aI1
aF0.75
aa(lp27
I1
aF0.22959451776503914
aI0
aF0.49519711509568598
aI1
aF0.53333675240325118
aI3
aF0.62857142857142856
aI2
aF1
aI4
aF1
aI1
aF0.65217391304347827
aa(lp28
I1
aF0.44749732650728136
aI0
aF0.42455749198546577
aI0
aF0.29248375781597324
aI3
aF0.6470588235294118
aI2
aF1
aI1
aF0.75
aI1
aF0.52941176470588236
aa(lp29
I1
aF0.22821305558948035
aI0
aF0.41482528511651118
aI1
aF0.39997205922019963
aI3
aF0.70967741935483875
aI2
aF1
aI4
aF1
aI1
aF0.57692307692307687
aa(lp30
I1
aF0.13003919990348589
aI0
aF0.28376110699562307
aI1
aF0.28511995000016299
aI3
aF0.94444444444444442
aI2
aF0.95652173913043481
aI3
aF1
aI1
aF0.5357142857142857
aa(lp31
I1
aF0.50011667278317096
aI0
aF0.21207724168018693
aI1
aF0.62072270338646696
aI3
aF0.8666666666666667
aI2
aF0.61111111111111116
aI4
aF1
aI1
aF0.7142857142857143
aa(lp32
I1
aF0.29714328879029506
aI0
aF0.36646566254995105
aI1
aF0.86149132529056827
aI3
aF0.73333333333333328
aI2
aF0.9375
aI4
aF0.52000000000000002
aI1
aF1
aa(lp33
I1
aF0.47193839335630638
aI0
aF0.34011023938925056
aI0
aF0.35152947166546034
aI3
aF0.81481481481481477
aI2
aF0.90909090909090906
aI1
aF0.6428571428571429
aI1
aF0.54545454545454541
aa(lp34
I1
aF0.51441319661762108
aI0
aF0.48726482264599003
aI1
aF0.60309012121816308
aI3
aF0.5641025641025641
aI2
aF1
aI4
aF1
aI1
aF0.68181818181818177
aa(lp35
I1
aF0.2127441375601884
aI0
aF0.26641894434654534
aI1
aF0.80014028917533353
aI3
aF0.95454545454545459
aI2
aF0.91666666666666663
aI4
aF0.9285714285714286
aI1
aF1
aa(lp36
I1
aF0.56109789307681335
aI1
aF0.37253549234053995
aI1
aF0.78916156490711775
aI2
aF0.45833333333333331
aI4
aF1
aI4
aF0.875
aI1
aF1
aa(lp37
I1
aF0.15426158154596092
aI0
aF0.22952167083729469
aI1
aF0.79743135134715104
aI3
aF0.93333333333333335
aI2
aF0.75862068965517238
aI4
aF0.8125
aI1
aF1
aa(lp38
I0
aF0.27239351378221266
aI1
aF0.19859014790569907
aI1
aF0.50940143425518258
aI3
aF0.95454545454545459
aI1
aF0.66666666666666663
aI2
aF0.7857142857142857
aI1
aF0.61111111111111116
aa(lp39
I1
aF0.19283030606311014
aI0
aF0.39781205295823985
aI1
aF0.69082563918543827
aI3
aF0.73333333333333328
aI2
aF0.9375
aI4
aF1
aI1
aF0.75
aa(lp40
I1
aF0.38874969437665652
aI0
aF0.1738837415672676
aI1
aF0.69827642597103479
aI3
aF1
aI2
aF0.55000000000000004
aI4
aF1
aI1
aF0.75
aa(lp41
I1
aF0.34952378423130892
aI0
aF0.46403149033188462
aI1
aF0.57772920346345236
aI3
aF0.61111111111111116
aI2
aF1
aI4
aF1
aI1
aF0.68181818181818177
aa(lp42
I1
aF0.63551723036756635
aI0
aF0.63186537249374131
aI0
aF0.2729766102160408
aI3
aF0.43137254901960786
aI2
aF1
aI1
aF1
aI1
aF0.6470588235294118
aa(lp43
I1
aF0.62132083069825084
aI0
aF0.27592079364747013
aI0
aF0.15553674342622692
aI3
aF0.875
aI2
aF0.75862068965517238
aI1
aF0
aI1
aF0.7142857142857143
aa(lp44
I1
aF0.73962925517932832
aI1
aF0.28829943744545572
aI0
aF0.83023353254826027
aI2
aF0.47826086956521741
aI4
aF1
aI1
aF0.88235294117647056
aI1
aF0
aa(lp45
I1
aF0.49952273167730443
aI0
aF0.35902297227988855
aI1
aF0.70643244614893497
aI3
aF0.6875
aI2
aF0.94444444444444442
aI4
aF1
aI1
aF0.78947368421052633
aa(lp46
I1
aF0.49824914332348225
aI0
aF0.38177672251495831
aI1
aF0.91878563643437983
aI3
aF0.6470588235294118
aI2
aF0.9375
aI1
aF0.5714285714285714
aI1
aF1
aa(lp47
I1
aF0.59241432963472618
aI0
aF0.38661298178450887
aI1
aF0.82978453404528041
aI3
aF0.6470588235294118
aI2
aF0.83333333333333337
aI1
aF0.5625
aI1
aF1
aa(lp48
I1
aF0.81202815337949275
aI1
aF0.1906369827161235
aI0
aF0.59111369648730072
aI2
aF0.47826086956521741
aI4
aF0.76470588235294112
aI1
aF1
aI1
aF1
aa(lp49
I1
aF0.46911779954403399
aI0
aF0.42353198591668406
aI0
aF0.27389572571788445
aI3
aF0.6470588235294118
aI2
aF1
aI1
aF0.66666666666666663
aI1
aF0.57894736842105265
aa(lp50
I1
aF0.20195966622096195
aI0
aF0.37764829552594759
aI1
aF0.71023300833040859
aI3
aF0.73333333333333328
aI2
aF0.9375
aI4
aF1
aI1
aF0.83333333333333337
aa(lp51
I1
aF0.19839938668047374
aI0
aF0.37408014280520485
aI1
aF0.83521026065058224
aI3
aF0.73333333333333328
aI2
aF0.9375
aI4
aF0.59090909090909094
aI1
aF1
aa(lp52
I1
aF0.45167440731305164
aI0
aF0.48640135008789165
aI1
aF0.57124559714162626
aI3
aF0.59459459459459463
aI2
aF1
aI4
aF1
aI1
aF0.68181818181818177
aa(lp53
I1
aF0.20861226177729086
aI0
aF0.41130607702000965
aI1
aF0.60627669795348738
aI3
aF0.70967741935483875
aI2
aF1
aI4
aF1
aI1
aF0.68181818181818177
aa(lp54
I1
aF0.22636418837718797
aI0
aF0.19924328218323262
aI1
aF0.50066678297438316
aI3
aF0.91666666666666663
aI2
aF0.6470588235294118
aI4
aF1
aI1
aF0.65217391304347827
aa(lp55
I1
aF0.39408073330202531
aI0
aF0.48479284164890424
aI1
aF0.77449784177003245
aI3
aF0.61111111111111116
aI2
aF1
aI4
aF0.91666666666666663
aI1
aF1
aa(lp56
I1
aF0.15787647831896767
aI0
aF0.42689680418025544
aI1
aF0.22754590161812949
aI3
aF0.68965517241379315
aI2
aF1
aI3
aF1
aI1
aF0.5357142857142857
aa(lp57
I1
aF0.40695037345612939
aI0
aF0.31768369383871919
aI1
aF0.60624907612761281
aI3
aF0.95652173913043481
aI2
aF0.88
aI4
aF1
aI1
aF0.68181818181818177
aa(lp58
I1
aF0.21181413602726495
aI0
aF0.41943983208688407
aI1
aF0.72495107804966386
aI3
aF0.70967741935483875
aI2
aF1
aI4
aF1
aI1
aF0.83333333333333337
aa(lp59
I1
aF0.31333009289867231
aI0
aF0.46918755382406341
aI1
aF0.56313174957627876
aI3
aF0.6470588235294118
aI2
aF1
aI4
aF1
aI1
aF0.68181818181818177
aa(lp60
I1
aF0.24471779346647082
aI0
aF0.46664448664491187
aI1
aF0.77633542107674025
aI3
aF0.6470588235294118
aI2
aF1
aI4
aF0.9285714285714286
aI1
aF1
aa(lp61
I1
aF0.21933837083722307
aI0
aF0.41712642962979773
aI1
aF0.82730737366404072
aI3
aF0.70967741935483875
aI2
aF1
aI4
aF0.59090909090909094
aI1
aF1
aa(lp62
I1
aF0.30301139037309444
aI1
aF0.12740611796413692
aI1
aF0.95579272535551174
aI2
aF0.55000000000000004
aI3
aF1
aI1
aF0.5
aI1
aF1
aa(lp63
I1
aF0.2722785769953715
aI0
aF0.4357097368431968
aI1
aF0.70074741751369185
aI3
aF0.70967741935483875
aI2
aF1
aI4
aF1
aI1
aF0.75
aa(lp64
I1
aF0.26885917218291266
aI0
aF0.20233987050516344
aI1
aF0.85508633230714359
aI3
aF0.91666666666666663
aI2
aF0.6470588235294118
aI4
aF0.52000000000000002
aI1
aF1
aa(lp65
I1
aF0.67303476359299419
aI0
aF0.28484215132558233
aI0
aF0.44408566024419494
aI3
aF0.88
aI2
aF0.75862068965517238
aI1
aF0.6875
aI1
aF1
aa(lp66
I1
aF0.67197119413358453
aI0
aF0.14668985057219597
aI0
aF0.72696466933825987
aI3
aF1
aI2
aF0.42307692307692307
aI1
aF0.75
aI1
aF0
aa(lp67
I1
aF0.50076226994437534
aI0
aF0.46816371133214807
aI0
aF0.15959375886903793
aI3
aF0.5641025641025641
aI2
aF1
aI4
aF1
aI1
aF0.68181818181818177
aa(lp68
I1
aF0.088102311304133041
aI0
aF0.31840116230184423
aI1
aF0.33381621231764225
aI3
aF1
aI2
aF1
aI3
aF0.6071428571428571
aI1
aF0.57692307692307687
aa(lp69
I1
aF0.29986731503849273
aI0
aF0.29871887310931766
aI1
aF0.78871146321573005
aI3
aF0.95652173913043481
aI2
aF0.95652173913043481
aI4
aF0.9285714285714286
aI1
aF1
aa(lp70
I1
aF0.42000865375110708
aI0
aF0.27000907720559963
aI1
aF0.59191611015326628
aI3
aF0.95454545454545459
aI2
aF0.81481481481481477
aI4
aF1
aI1
aF0.68181818181818177
aa(lp71
I1
aF0.3562221939426764
aI0
aF0.4538763612345853
aI0
aF0.29019746271463198
aI3
aF0.6470588235294118
aI2
aF1
aI1
aF0.75
aI1
aF0.5
aa(lp72
I1
aF0.50198915952265222
aI0
aF0.34917986061422401
aI1
aF0.75233522150300369
aI3
aF0.73333333333333328
aI2
aF0.90476190476190477
aI4
aF0.875
aI1
aF0.93333333333333335
aa(lp73
I1
aF0.54379973476203447
aI1
aF0.33206654895843934
aI1
aF0.64612536061365455
aI2
aF0.45833333333333331
aI4
aF1
aI4
aF1
aI1
aF0.7142857142857143
aa(lp74
I1
aF0.21991018676816887
aI0
aF0.42609555489312978
aI1
aF0.90420041475171198
aI3
aF0.70967741935483875
aI2
aF1
aI4
aF0.52000000000000002
aI1
aF1
aa(lp75
I1
aF0.43775703581441694
aI0
aF0.45011731327822235
aI0
aF0.55084303722948924
aI3
aF0.62857142857142856
aI2
aF1
aI1
aF0.56521739130434778
aI1
aF1
aa(lp76
I1
aF0.27418482814860701
aI0
aF0.36591804388439697
aI1
aF0.8849598001420671
aI3
aF0.73333333333333328
aI2
aF0.9375
aI4
aF0.52000000000000002
aI1
aF1
aa(lp77
I1
aF0.4418058656106495
aI1
aF0.28362677295763472
aI1
aF0.74057423116430798
aI2
aF0.47826086956521741
aI4
aF1
aI4
aF1
aI1
aF0.88235294117647056
aa(lp78
I1
aF0.43470536793102876
aI0
aF0.32173590546614073
aI1
aF0.71645557955034267
aI3
aF0.84615384615384615
aI2
aF0.86956521739130432
aI4
aF1
aI1
aF0.83333333333333337
aa(lp79
I1
aF0.35683513924479993
aI0
aF0.66040933556947623
aI1
aF0.78198796027380946
aI3
aF0.46808510638297873
aI2
aF1
aI4
aF0.91666666666666663
aI1
aF1
aa(lp80
I1
aF0.35217019006867045
aI1
aF0.069613552670786949
aI1
aF0.75298809910119868
aI2
aF0.83333333333333337
aI3
aF0.55555555555555558
aI4
aF0.90909090909090906
aI1
aF0.93333333333333335
aa(lp81
I1
aF0.32172088861095405
aI0
aF0.24860601224046441
aI0
aF0.54015841291013922
aI3
aF0.94117647058823528
aI2
aF0.73333333333333328
aI1
aF0.52000000000000002
aI1
aF1
aa(lp82
I1
aF0.4605349556506535
aI0
aF0.63179292259162434
aI1
aF0.95858517966980605
aI3
aF0.46808510638297873
aI2
aF1
aI1
aF0.56521739130434778
aI1
aF1
aa(lp83
I1
aF0.60661394807927993
aI0
aF0.28557740723091474
aI1
aF0.67342878274480245
aI3
aF0.91666666666666663
aI2
aF0.7857142857142857
aI4
aF1
aI1
aF0.75
aa(lp84
I1
aF0.27268126833405804
aI0
aF0.23462290867870284
aI1
aF0.73163042302304482
aI3
aF0.93333333333333335
aI2
aF0.70967741935483875
aI4
aF1
aI1
aF0.88235294117647056
aa(lp85
I1
aF0.17584651895883252
aI0
aF0.26786572642775319
aI1
aF0.79629913519272499
aI3
aF0.95238095238095233
aI2
aF0.91666666666666663
aI4
aF0.8666666666666667
aI1
aF1
aa(lp86
I1
aF0.2001042967116633
aI0
aF0.31158821957558924
aI1
aF0.90193807342632715
aI3
aF0.95652173913043481
aI2
aF0.95652173913043481
aI4
aF0.52000000000000002
aI1
aF1
aa(lp87
I1
aF0.31961317912698906
aI0
aF0.44808265163825522
aI1
aF0.92941030531471946
aI3
aF0.6875
aI2
aF1
aI4
aF0.52000000000000002
aI1
aF1
aa(lp88
I1
aF0.35750649829727388
aI0
aF0.21223164690120766
aI1
aF0.85770114147841858
aI3
aF0.9285714285714286
aI2
aF0.6470588235294118
aI1
aF0.52173913043478259
aI1
aF1
aa(lp89
I1
aF0.39591658541748587
aI0
aF0.36277368023741141
aI1
aF0.68046208505013039
aI3
aF0.6875
aI2
aF0.9375
aI4
aF1
aI1
aF0.75
aa(lp90
I1
aF0.14611973073608997
aI0
aF0.30049288237838123
aI1
aF0.20914246052708307
aI3
aF0.95238095238095233
aI2
aF0.95652173913043481
aI3
aF1
aI1
aF0.5357142857142857
aa(lp91
I1
aF0.19838260174693245
aI0
aF0.3616870863099495
aI1
aF0.68133411615791151
aI3
aF0.73333333333333328
aI2
aF0.9375
aI4
aF1
aI1
aF0.75
aa(lp92
I1
aF0.21566986935765009
aI0
aF0.36475721656954929
aI1
aF0.68107878380521147
aI3
aF0.73333333333333328
aI2
aF0.9375
aI4
aF1
aI1
aF0.75
aa(lp93
I1
aF0.57380654352532001
aI1
aF0.52992339973993385
aI0
aF0.56081317499606154
aI2
aF0.43137254901960786
aI4
aF1
aI1
aF0.65000000000000002
aI1
aF1
aa(lp94
I1
aF0.65750749975901523
aI0
aF0.31329838864820458
aI0
aF0.68305801603398442
aI3
aF0.88
aI2
aF0.7857142857142857
aI1
aF0.7142857142857143
aI1
aF0
aa(lp95
I1
aF0.31346731369003977
aI0
aF0.2690246166843171
aI1
aF0.56125856839699451
aI3
aF0.95454545454545459
aI2
aF0.91666666666666663
aI4
aF1
aI1
aF0.68181818181818177
aa(lp96
I1
aF0.4447536372323162
aI0
aF0.40442104169782656
aI1
aF0.50675470234192155
aI3
aF0.6470588235294118
aI2
aF1
aI4
aF1
aI1
aF0.65217391304347827
aa(lp97
I1
aF0.59292694188842354
aI0
aF0.27293709660283261
aI1
aF0.82720211311210512
aI3
aF0.91304347826086951
aI2
aF0.75862068965517238
aI1
aF0.5625
aI1
aF1
aa(lp98
I1
aF0.26394215596854431
aI0
aF0.15656395634603981
aI1
aF0.67304701748505069
aI3
aF1
aI2
aF0.5
aI4
aF1
aI1
aF0.75
aa(lp99
I1
aF0.44706689870934624
aI0
aF0.40298702589334845
aI1
aF0.90465764684280925
aI3
aF0.6470588235294118
aI2
aF1
aI1
aF0.54545454545454541
aI1
aF1
aa(lp100
I1
aF0.3555518179688606
aI0
aF0.33820843972511871
aI1
aF0.81683120878727633
aI3
aF0.84615384615384615
aI2
aF0.90909090909090906
aI4
aF0.6470588235294118
aI1
aF1
aa(lp101
I1
aF0.56220988327728494
aI1
aF0.13198887583309216
aI1
aF0.7864481120446708
aI2
aF0.53658536585365857
aI4
aF0.54545454545454541
aI4
aF0.875
aI1
aF1
aa.