(lp1
(lp2
I1
aF0.19886975372748994
aI0
aF0.14472585480395983
aI1
aF0.48331021001960273
aI3
aF1
aI2
aF0.5
aI4
aF1
aI1
aF0.625
aa(lp3
I1
aF0.80917904749088265
aI1
aF0.56524977623566486
aI0
aF0.84584987877139817
aI2
aF0.42307692307692307
aI4
aF0.77777777777777779
aI1
aF1
aI1
aF0
aa(lp4
I1
aF0.48578169732673593
aI0
aF0.40369869982454953
aI1
aF0.63838076371963171
aI3
aF0.62857142857142856
aI2
aF1
aI4
aF1
aI1
aF0.7142857142857143
aa(lp5
I1
aF0.34711521734112361
aI0
aF0.19889975841214536
aI1
aF0.68363287454683974
aI3
aF0.91666666666666663
aI2
aF0.61111111111111116
aI4
aF1
aI1
aF0.75
aa(lp6
I1
aF0.53011754069075423
aI0
aF0.32513049104560543
aI1
aF0.71380309653752905
aI3
aF0.81481481481481477
aI2
aF0.83333333333333337
aI4
aF1
aI1
aF0.83333333333333337
aa(lp7
I1
aF0.36017646040890128
aI0
aF0.45297646591447005
aI1
aF0.71580678642311912
aI3
aF0.6470588235294118
aI2
aF1
aI4
aF1
aI1
aF0.83333333333333337
aa(lp8
I1
aF0.22571090323106369
aI0
aF0.60139462550122813
aI1
aF0.54828626663502833
aI3
aF0.5
aI2
aF1
aI4
aF1
aI1
aF0.65217391304347827
aa(lp9
I1
aF0.74554365420585034
aI0
aF0.2643350762707305
aI0
aF0.26673744047773362
aI3
aF0.86956521739130432
aI2
aF0.61111111111111116
aI1
aF1
aI1
aF0.91666666666666663
aa(lp10
I1
aF0.19916826203739635
aI0
aF0.28358651165627458
aI1
aF0.51985148842453166
aI3
aF0.95652173913043481
aI2
aF0.95652173913043481
aI4
aF1
aI1
aF0.65217391304347827
aa(lp11
I1
aF0.57582508567821122
aI1
aF0.35830607911183776
aI1
aF0.7213213481028532
aI2
aF0.45833333333333331
aI4
aF1
aI4
aF1
aI1
aF0.83333333333333337
aa(lp12
I1
aF0.42025599435152461
aI0
aF0.41334260427273006
aI1
aF0.50642149256976499
aI3
aF0.6470588235294118
aI2
aF1
aI4
aF1
aI1
aF0.65217391304347827
aa(lp13
I1
aF0.4801515580431629
aI0
aF0.24319366369207318
aI0
aF0.26853501770794241
aI3
aF0.93333333333333335
aI2
aF0.6470588235294118
aI1
aF0.66666666666666663
aI1
aF0.57894736842105265
aa(lp14
I1
aF0.19869054976967981
aI0
aF0.36523558192851202
aI1
aF0.69835884932931647
aI3
aF0.73333333333333328
aI2
aF0.9375
aI4
aF1
aI1
aF0.75
aa(lp15
I1
aF0.27195268757695579
aI0
aF0.28205740190747752
aI1
aF0.47299045168569909
aI3
aF0.95652173913043481
aI2
aF0.95652173913043481
aI4
aF1
aI1
aF0.59999999999999998
aa(lp16
I1
aF0.69256089045028368
aI1
aF0.13782287307219576
aI1
aF0.8233899564974646
aI2
aF0.52380952380952384
aI4
aF0.66666666666666663
aI1
aF0.6428571428571429
aI1
aF1
aa(lp17
I1
aF0.32243746117265848
aI0
aF0.27113925873849209
aI1
aF0.81547844175237594
aI3
aF0.95454545454545459
aI2
aF0.84615384615384615
aI4
aF0.73333333333333328
aI1
aF1
aa(lp18
I1
aF0.20351907004809078
aI0
aF0.55843990502920182
aI1
aF0.64644709847827719
aI3
aF0.53658536585365857
aI2
aF1
aI4
aF1
aI1
aF0.7142857142857143
aa(lp19
I1
aF0.35117558209209465
aI0
aF0.39334070484516148
aI1
aF0.74992186462548471
aI3
aF0.6875
aI2
aF0.9375
aI4
aF0.90909090909090906
aI1
aF0.93333333333333335
aa(lp20
I1
aF0.37712591690476072
aI1
aF0.19415752928202257
aI1
aF0.94593111468604429
aI2
aF0.47826086956521741
aI4
aF1
aI1
aF0.52173913043478259
aI1
aF1
aa(lp21
I1
aF0.32724897019236177
aI0
aF0.18185722751448452
aI1
aF0.64999531435917601
aI3
aF1
aI2
aF0.59459459459459463
aI4
aF1
aI1
aF0.7142857142857143
aa(lp22
I1
aF0.64864819790641448
aI0
aF0.29297324496389743
aI1
aF0.68150564916950518
aI3
aF0.88
aI2
aF0.7857142857142857
aI4
aF1
aI1
aF0.75
aa(lp23
I1
aF0.51892014052294488
aI1
aF0.42767299189069963
aI1
aF0.90484235477579
aI2
aF0.44897959183673469
aI4
aF1
aI1
aF0.59999999999999998
aI1
aF1
aa(lp24
I1
aF0.5145528102202741
aI0
aF0.9138442815627017
aI0
aF0.26224228368431157
aI2
aF0.43137254901960786
aI1
aF0
aI1
aF0.66666666666666663
aI1
aF0.65000000000000002
aa(lp25
I1
aF0.50033277198916448
aI0
aF0.1989726444569816
aI1
aF0.61959292946300737
aI3
aF0.91666666666666663
aI2
aF0.5641025641025641
aI4
aF1
aI1
aF0.7142857142857143
aa(lp26
I1
aF0.34279414105700656
aI0
aF0.5053005781445612
aI1
aF0.72659536319948848
aI3
aF0.5641025641025641
aI2
aF1
aI4
aF1
aI1
aF0.83333333333333337
aa(lp27
I1
aF0.23785488505436669
aI0
aF0.64341768038803393
aI1
aF0.8252162188130604
aI3
aF0.5
aI2
aF1
aI4
aF0.59090909090909094
aI1
aF1
aa(lp28
I1
aF0.42968151168980329
aI0
aF0.35670153749964251
aI1
aF0.53220539124491373
aI3
aF0.70967741935483875
aI2
aF0.94444444444444442
aI4
aF1
aI1
aF0.65217391304347827
aa(lp29
I1
aF0.38086289944642326
aI0
aF0.48629856183439324
aI1
aF0.77971187870280168
aI3
aF0.61111111111111116
aI2
aF1
aI4
aF0.91666666666666663
aI1
aF1
aa(lp30
I1
aF0.81124391711583999
aI1
aF0.21365513429828198
aI0
aF0.21266355300312323
aI2
aF0.47826086956521741
aI4
aF0.8125
aI1
aF0
aI1
aF1
aa(lp31
I1
aF0.18906710161777307
aI0
aF0.43205679294720889
aI1
aF0.57731674916084808
aI3
aF0.70967741935483875
aI2
aF1
aI4
aF1
aI1
aF0.68181818181818177
aa(lp32
I1
aF0.52272699277156809
aI0
aF0.33640514786057019
aI1
aF0.78202786697480331
aI3
aF0.7857142857142857
aI2
aF0.86956521739130432
aI4
aF0.88888888888888884
aI1
aF1
aa(lp33
I1
aF0.30653465866823071
aI0
aF0.48898933343252438
aI1
aF0.70576913047581202
aI3
aF0.62857142857142856
aI2
aF1
aI4
aF1
aI1
aF0.78947368421052633
aa(lp34
I1
aF0.65650079632672032
aI1
aF0.24381693009625793
aI0
aF0.29236296072897805
aI2
aF0.47826086956521741
aI4
aF1
aI1
aF1
aI1
aF0.59999999999999998
aa(lp35
I1
aF0.29446714212093106
aI0
aF0.32423759627174953
aI1
aF0.69461254448801313
aI3
aF0.88
aI2
aF0.95238095238095233
aI4
aF1
aI1
aF0.75
aa(lp36
I1
aF0.64970559154684593
aI0
aF0.38390634195117701
aI0
aF0.77825252871357209
aI3
aF0.62857142857142856
aI2
aF0.83333333333333337
aI1
aF0.7142857142857143
aI1
aF0
aa(lp37
I1
aF0.30824385972089818
aI0
aF0.43669801972712841
aI1
aF0.59712440664244948
aI3
aF0.70967741935483875
aI2
aF1
aI4
aF1
aI1
aF0.68181818181818177
aa(lp38
I1
aF0.30712954251645275
aI0
aF0.22205861556330231
aI1
aF0.55694671434340737
aI3
aF0.9285714285714286
aI2
aF0.6875
aI4
aF1
aI1
aF0.65217391304347827
aa(lp39
I1
aF0.16654956766411788
aI1
aF0.1259801077010303
aI1
aF0.67875319654536626
aI2
aF0.5641025641025641
aI3
aF1
aI4
aF0.88888888888888884
aI1
aF0.75
aa(lp40
I1
aF0.33426541012834199
aI0
aF0.42116994848129463
aI1
aF0.52102216589678441
aI3
aF0.66666666666666663
aI2
aF1
aI4
aF1
aI1
aF0.65217391304347827
aa(lp41
I1
aF0.47749669900394898
aI0
aF0.2548609310595642
aI1
aF0.86662051770315041
aI3
aF0.94444444444444442
aI2
aF0.70967741935483875
aI1
aF0.54545454545454541
aI1
aF1
aa(lp42
I1
aF0.22354960476648378
aI0
aF0.18653558374079104
aI1
aF0.72712621435389979
aI3
aF1
aI2
aF0.62857142857142856
aI4
aF1
aI1
aF0.83333333333333337
aa(lp43
I1
aF0.71197752310919971
aI1
aF0.25730911832962711
aI0
aF0.38278845526022742
aI2
aF0.47826086956521741
aI4
aF1
aI1
aF0.76923076923076927
aI1
aF1
aa(lp44
I1
aF0.45713432738104676
aI0
aF0.19451169275921043
aI1
aF0.51117632860592577
aI3
aF0.91666666666666663
aI2
aF0.59459459459459463
aI4
aF1
aI1
aF0.65217391304347827
aa(lp45
I1
aF0.50525784927816131
aI1
aF0.11352935102393147
aI0
aF0.38356851742276876
aI2
aF0.55263157894736847
aI3
aF0.53846153846153844
aI1
aF0.625
aI1
aF0.7142857142857143
aa(lp46
I1
aF0.35003449041671586
aI0
aF0.40464084952967327
aI1
aF0.60129135318910643
aI3
aF0.66666666666666663
aI2
aF1
aI4
aF1
aI1
aF0.68181818181818177
aa(lp47
I1
aF0.71188896522995393
aI0
aF0.28445035865616675
aI0
aF0.34089935024814422
aI3
aF0.88
aI2
aF0.70967741935483875
aI1
aF0.80000000000000004
aI1
aF0.875
aa(lp48
I1
aF0.20155366105323358
aI0
aF0.30450168810923683
aI1
aF0.41235202649214475
aI3
aF0.95652173913043481
aI2
aF0.95652173913043481
aI4
aF1
aI1
aF0.57692307692307687
aa(lp49
I1
aF0.43671345151636709
aI1
aF0.27917192709168781
aI0
aF0.21944050156227057
aI2
aF0.47826086956521741
aI4
aF1
aI4
aF0.66666666666666663
aI1
aF0.63636363636363635
aa(lp50
I1
aF0.78783920262266227
aI1
aF0.17312342145767057
aI0
aF0.023762829712419276
aI2
aF0.48888888888888887
aI4
aF0.8666666666666667
aI1
aF0
aI1
aF1
aa(lp51
I1
aF0.33120899343526322
aI0
aF0.79549442617053423
aI1
aF0.75616964708430534
aI2
aF0.45833333333333331
aI1
aF0
aI4
aF0.90909090909090906
aI1
aF0.93333333333333335
aa(lp52
I1
aF0.473239840375833
aI0
aF0.23736043555918274
aI1
aF0.8141430607506196
aI3
aF0.93333333333333335
aI2
aF0.6470588235294118
aI4
aF0.7142857142857143
aI1
aF1
aa(lp53
I1
aF0.60513591807003408
aI1
aF0.21250651321802028
aI1
aF0.92359490523296595
aI2
aF0.47826086956521741
aI4
aF1
aI1
aF0.63157894736842102
aI1
aF1
aa(lp54
I1
aF0.37186114228416023
aI0
aF0.39738779740034158
aI1
aF0.55934042358558933
aI3
aF0.6875
aI2
aF0.9375
aI4
aF1
aI1
aF0.68181818181818177
aa(lp55
I1
aF0.13385142605181322
aI0
aF0.42187043019999892
aI1
aF0.24262997009976062
aI3
aF0.66666666666666663
aI2
aF1
aI3
aF1
aI1
aF0.5357142857142857
aa(lp56
I1
aF0.35739056972911554
aI0
aF0.27367456408121116
aI1
aF0.72273094112869241
aI3
aF0.95454545454545459
aI2
aF0.84615384615384615
aI4
aF1
aI1
aF0.83333333333333337
aa(lp57
I1
aF0.40198536967340248
aI0
aF0.25018690100791696
aI1
aF0.46176843048076055
aI3
aF0.94117647058823528
aI2
aF0.70967741935483875
aI4
aF1
aI1
aF0.59999999999999998
aa(lp58
I1
aF0.1628886221242638
aI0
aF0.22011386327440474
aI1
aF0.28822329127848234
aI3
aF0.9285714285714286
aI2
aF0.70967741935483875
aI3
aF1
aI1
aF0.5357142857142857
aa(lp59
I1
aF0.19085755745543265
aI0
aF0.18116775537916752
aI0
aF0.58389152597641658
aI3
aF1
aI2
aF0.62857142857142856
aI1
aF0.5
aI1
aF1
aa(lp60
I1
aF0.59226876314942156
aI0
aF0.25602310804907369
aI1
aF0.93234715466472651
aI3
aF0.89473684210526316
aI2
aF0.66666666666666663
aI1
aF0.63157894736842102
aI1
aF1
aa(lp61
I1
aF0.21450744848872372
aI0
aF0.31157131352263079
aI1
aF0.77669579936558242
aI3
aF0.95652173913043481
aI2
aF0.95652173913043481
aI4
aF0.9285714285714286
aI1
aF1
aa(lp62
I1
aF0.26615923830813903
aI0
aF0.33475012048887109
aI1
aF0.73456478453639307
aI3
aF0.88
aI2
aF0.95238095238095233
aI4
aF1
aI1
aF0.88235294117647056
aa(lp63
I1
aF0.3620662089299086
aI0
aF0.28895929001975884
aI1
aF0.80830180069284485
aI3
aF0.95652173913043481
aI2
aF0.88
aI4
aF0.84615384615384615
aI1
aF1
aa(lp64
I1
aF0.39406562381560173
aI0
aF0.21846028479970803
aI1
aF0.7618953005552308
aI3
aF0.9285714285714286
aI2
aF0.6470588235294118
aI4
aF0.90909090909090906
aI1
aF0.93333333333333335
aa(lp65
I1
aF0.373181633572643
aI0
aF0.21343655271674489
aI1
aF0.61940469151097222
aI3
aF0.9285714285714286
aI2
aF0.6470588235294118
aI4
aF1
aI1
aF0.7142857142857143
aa(lp66
I1
aF0.22896742306063855
aI0
aF0.2584552421438131
aI1
aF0.71492927279831853
aI3
aF0.94444444444444442
aI2
aF0.7857142857142857
aI4
aF1
aI1
aF0.83333333333333337
aa(lp67
I1
aF0.47408771857637677
aI0
aF0.24028099599970321
aI1
aF0.63739233458688749
aI3
aF0.93333333333333335
aI2
aF0.6470588235294118
aI4
aF1
aI1
aF0.7142857142857143
aa(lp68
I1
aF0.50349578274681661
aI0
aF0.45302432351990574
aI0
aF0.59184327435401873
aI3
aF0.59459459459459463
aI2
aF1
aI1
aF0.61904761904761907
aI1
aF1
aa(lp69
I1
aF0.2648819870061393
aI1
aF0.13098349451099944
aI1
aF0.73141904420147863
aI2
aF0.53658536585365857
aI3
aF1
aI4
aF1
aI1
aF0.88235294117647056
aa(lp70
I1
aF0.37985764119796894
aI0
aF0.42526641899749706
aI1
aF0.43332062118253456
aI3
aF0.66666666666666663
aI2
aF1
aI4
aF1
aI1
aF0.59999999999999998
aa(lp71
I1
aF0.47349868339165135
aI0
aF0.41247535253561973
aI1
aF0.57057233914553707
aI3
aF0.6470588235294118
aI2
aF1
aI4
aF1
aI1
aF0.68181818181818177
aa(lp72
I1
aF0.37739332021496286
aI1
aF0.097289088747989361
aI1
aF0.57035228339006216
aI2
aF0.61538461538461542
aI3
aF0.54545454545454541
aI4
aF1
aI1
aF0.68181818181818177
aa(lp73
I1
aF0.34052194154193371
aI1
aF0.31761976528617142
aI1
aF0.79733951568422679
aI2
aF0.47826086956521741
aI4
aF1
aI4
aF0.91666666666666663
aI1
aF1
aa(lp74
I1
aF0.65325487153525774
aI1
aF0.32136645393774821
aI0
aF0.10647254926034577
aI2
aF0.46808510638297873
aI4
aF1
aI1
aF0
aI1
aF0.7142857142857143
aa(lp75
I1
aF0.52622633626384308
aI0
aF0.50629398246974655
aI1
aF0.66945653566091445
aI3
aF0.52380952380952384
aI2
aF1
aI4
aF1
aI1
aF0.75
aa(lp76
I1
aF0.33999299279962847
aI0
aF0.35575943944655763
aI1
aF0.87782513778729165
aI3
aF0.73333333333333328
aI2
aF0.94444444444444442
aI1
aF0.52173913043478259
aI1
aF1
aa(lp77
I1
aF0.71374949682557731
aI1
aF0.25053788645886688
aI1
aF0.80834823754278318
aI2
aF0.47826086956521741
aI4
aF1
aI4
aF0.59999999999999998
aI1
aF1
aa(lp78
I1
aF0.37550204785899299
aI1
aF0.26702560211917015
aI0
aF0.57789519369205034
aI2
aF0.47826086956521741
aI4
aF1
aI1
aF0.54166666666666663
aI1
aF1
aa(lp79
I1
aF0.49744233554570472
aI0
aF0.48528453932114024
aI0
aF0.70791197490247415
aI3
aF0.57894736842105265
aI2
aF1
aI1
aF0.625
aI1
aF0
aa(lp80
I1
aF0.42811097381545027
aI1
aF0.13405595301718432
aI1
aF0.75366191962085172
aI2
aF0.52380952380952384
aI3
aF0.5714285714285714
aI4
aF0.90000000000000002
aI1
aF0.93333333333333335
aa(lp81
I1
aF0.6248966125951535
aI1
aF0.27949091699022077
aI1
aF0.90530531857037255
aI2
aF0.47826086956521741
aI4
aF1
aI1
aF0.66666666666666663
aI1
aF1
aa(lp82
I1
aF0.58629343720624683
aI0
aF0.43483093903669656
aI1
aF0.78394241421390809
aI3
aF0.61111111111111116
aI2
aF0.9375
aI4
aF0.875
aI1
aF1
aa(lp83
I1
aF0.072976203440766274
aI0
aF0.23807380656299071
aI1
aF0.27314049922485839
aI3
aF1
aI2
aF1
aI3
aF0.5757575757575758
aI1
aF0.5357142857142857
aa(lp84
I1
aF0.20269761112173112
aI0
aF0.62369573240593668
aI1
aF0.60754553078798434
aI3
aF0.5
aI2
aF1
aI4
aF1
aI1
aF0.68181818181818177
aa(lp85
I1
aF0.41389414616035669
aI0
aF0.32721089588211349
aI1
aF0.82344867276596601
aI3
aF0.88
aI2
aF0.86956521739130432
aI4
aF0.55000000000000004
aI1
aF1
aa(lp86
I1
aF0.32536717914055691
aI1
aF0.12281252361163575
aI0
aF0.66555182158788151
aI2
aF0.5641025641025641
aI3
aF0.77777777777777779
aI1
aF0.57692307692307687
aI1
aF0
aa(lp87
I1
aF0.43048746867396814
aI0
aF0.19519343478284634
aI1
aF0.7925445806757685
aI3
aF0.91666666666666663
aI2
aF0.59459459459459463
aI4
aF0.90909090909090906
aI1
aF1
aa(lp88
I1
aF0.37283486974826885
aI0
aF0.25717699673519379
aI1
aF0.54611515683360656
aI3
aF0.94444444444444442
aI2
aF0.73333333333333328
aI4
aF1
aI1
aF0.65217391304347827
aa(lp89
I1
aF0.40048796381155172
aI0
aF0.3640801905645511
aI1
aF0.69204061467593159
aI3
aF0.6875
aI2
aF0.9375
aI4
aF1
aI1
aF0.75
aa(lp90
I1
aF0.57439117673227391
aI1
aF0.29690294131210559
aI1
aF0.72337732646214736
aI2
aF0.47826086956521741
aI4
aF1
aI4
aF1
aI1
aF0.83333333333333337
aa(lp91
I1
aF0.24065986522698701
aI0
aF0.20463886286354671
aI1
aF0.7909234239486691
aI3
aF0.91666666666666663
aI2
aF0.6470588235294118
aI4
aF0.9285714285714286
aI1
aF1
aa(lp92
I1
aF0.40182186035334888
aI0
aF0.51231874424187906
aI1
aF0.66867207513533766
aI3
aF0.55000000000000004
aI2
aF1
aI4
aF1
aI1
aF0.75
aa(lp93
I1
aF0.22956797304849597
aI0
aF0.28752054879227629
aI1
aF0.6808748893253862
aI3
aF0.95652173913043481
aI2
aF0.95652173913043481
aI4
aF1
aI1
aF0.75
aa(lp94
I0
aF0.28207210581215048
aI1
aF0.20308448912455068
aI1
aF0.2096369376812508
aI3
aF0.95652173913043481
aI1
aF0.66666666666666663
aI2
aF0.95652173913043481
aI1
aF0.5
aa(lp95
I1
aF0.089641014990020973
aI0
aF0.33135098036120236
aI1
aF0.74317634371612273
aI3
aF0.83333333333333337
aI2
aF1
aI3
aF0.4358974358974359
aI1
aF0.93333333333333335
aa(lp96
I1
aF0.49079807775758022
aI0
aF0.26385643025189898
aI0
aF0.94273619045130652
aI3
aF0.90476190476190477
aI2
aF0.75862068965517238
aI1
aF0.625
aI1
aF0
aa(lp97
I1
aF0.45882989424034237
aI0
aF0.39850956666407833
aI1
aF0.7184115655376192
aI3
aF0.66666666666666663
aI2
aF0.9375
aI4
aF1
aI1
aF0.83333333333333337
aa(lp98
I1
aF0.16589893078148243
aI0
aF0.34876741078470019
aI1
aF0.27043225131250137
aI3
aF0.83999999999999997
aI2
aF0.94999999999999996
aI3
aF1
aI1
aF0.5357142857142857
aa(lp99
I1
aF0.16425372315934095
aI0
aF0.22091650189376366
aI1
aF0.7830461557549665
aI3
aF0.9285714285714286
aI2
aF0.70967741935483875
aI4
aF0.8666666666666667
aI1
aF1
aa(lp100
I1
aF0.30313878799154936
aI0
aF0.24075405862367971
aI1
aF0.77163899212439235
aI3
aF0.93333333333333335
aI2
aF0.70967741935483875
aI4
aF0.9285714285714286
aI1
aF1
aa(lp101
I1
aF0.22889848561978554
aI0
aF0.12504063900777418
aI1
aF0.37618832889359255
aI3
aF1
aI2
aF0.48888888888888887
aI4
aF1
aI1
aF0.57692307692307687
aa.