(lp1
(lp2
(lp3
F-0.50753635266568542
aF0.47457358460212834
aF-0.38835016986420196
aF-0.31773129715554244
aF-0.78216345193122128
aa(lp4
F1.4943918887728902
aF0.29934934122670548
aF-1.0008203786579537
aF0.65920235228157475
aF0.74024357584174205
aa(lp5
F-0.3354397320890608
aF0.90007306969993006
aF-0.67951329918357628
aF0.017468718464445664
aF0.62906098023268442
aaa(lp6
(lp7
F1.0520102092207597
aF-1.2963529142840384
aF-0.53972523843719244
aF0.24756817349967719
aa(lp8
F-1.0776074946837013
aF0.11327547392003534
aF-0.30098585266183597
aF-0.94090919255540229
aa(lp9
F-0.90521469092668072
aF-0.11526152277310847
aF-0.57514391581743018
aF0.32498622185967391
aa(lp10
F-0.61089161112607249
aF0.044584769001202847
aF-0.29991127826476993
aF-0.74452435470018985
aa(lp11
F-0.93806970284847335
aF-0.3347210764013458
aF-0.66639344876439943
aF-0.55136390216983322
aa(lp12
F-0.041955210294693811
aF-0.30135919324044014
aF0.45371947895458992
aF0.12675030145602845
aaa.