(lp1
(lp2
I1
aF0.19886975372748994
aI0
aF0.14472585480395983
aI1
aF0.48331021001960273
aI3
aF1
aI2
aF0.5
aI4
aF1
aI1
aF0.625
aa(lp3
I1
aF0.80917904749088265
aI1
aF0.56524977623566486
aI0
aF0.84584987877139817
aI2
aF0.42307692307692307
aI4
aF0.77777777777777779
aI1
aF1
aI1
aF0
aa(lp4
I1
aF0.48578169732673593
aI0
aF0.40369869982454953
aI1
aF0.63838076371963171
aI3
aF0.62857142857142856
aI2
aF1
aI4
aF1
aI1
aF0.7142857142857143
aa(lp5
I1
aF0.34711521734112361
aI0
aF0.19889975841214536
aI1
aF0.68363287454683974
aI3
aF0.91666666666666663
aI2
aF0.61111111111111116
aI4
aF1
aI1
aF0.75
aa(lp6
I1
aF0.53011754069075423
aI0
aF0.32513049104560543
aI1
aF0.71380309653752905
aI3
aF0.81481481481481477
aI2
aF0.83333333333333337
aI4
aF1
aI1
aF0.83333333333333337
aa(lp7
I1
aF0.36017646040890128
aI0
aF0.45297646591447005
aI1
aF0.71580678642311912
aI3
aF0.6470588235294118
aI2
aF1
aI4
aF1
aI1
aF0.83333333333333337
aa(lp8
I1
aF0.22571090323106369
aI0
aF0.60139462550122813
aI1
aF0.54828626663502833
aI3
aF0.5
aI2
aF1
aI4
aF1
aI1
aF0.65217391304347827
aa(lp9
I1
aF0.74554365420585034
aI0
aF0.2643350762707305
aI0
aF0.26673744047773362
aI3
aF0.86956521739130432
aI2
aF0.61111111111111116
aI1
aF1
aI1
aF0.91666666666666663
aa(lp10
I1
aF0.19916826203739635
aI0
aF0.28358651165627458
aI1
aF0.51985148842453166
aI3
aF0.95652173913043481
aI2
aF0.95652173913043481
aI4
aF1
aI1
aF0.65217391304347827
aa(lp11
I1
aF0.57582508567821122
aI1
aF0.35830607911183776
aI1
aF0.7213213481028532
aI2
aF0.45833333333333331
aI4
aF1
aI4
aF1
aI1
aF0.83333333333333337
aa.