(lp1
(lp2
I1
aF0.27063806609897423
aI0
aF0.42668798867380331
aI1
aF0.87103764173378129
aI3
aF0.70967741935483875
aI2
aF1
aI4
aF0.52000000000000002
aI1
aF1
aa(lp3
I1
aF0.28826455586594335
aI0
aF0.38378816978203512
aI1
aF0.66782200831659477
aI3
aF0.73333333333333328
aI2
aF0.9375
aI4
aF1
aI1
aF0.75
aa(lp4
I1
aF0.27497266058556025
aI0
aF0.4104136736814481
aI1
aF0.65507507842274282
aI3
aF0.70967741935483875
aI2
aF1
aI4
aF1
aI1
aF0.7142857142857143
aa(lp5
I1
aF0.73301130612842214
aI1
aF0.32441993592218898
aI0
aF0.25497402739444219
aI2
aF0.45833333333333331
aI4
aF1
aI1
aF1
aI1
aF0.875
aa(lp6
I1
aF0.45628074877184888
aI0
aF0.36454647267981499
aI1
aF0.7451297699251529
aI3
aF0.66666666666666663
aI2
aF0.9375
aI4
aF0.90000000000000002
aI1
aF0.93333333333333335
aa(lp7
I1
aF0.36460992623028032
aI0
aF0.33668559681681287
aI1
aF0.78497047509377915
aI3
aF0.84615384615384615
aI2
aF0.90909090909090906
aI4
aF0.91666666666666663
aI1
aF1
aa(lp8
I1
aF0.20184487668474804
aI0
aF0.44112960535799028
aI1
aF0.78642794712303299
aI3
aF0.6875
aI2
aF1
aI4
aF0.9285714285714286
aI1
aF1
aa(lp9
I1
aF0.39027920257028792
aI0
aF0.41648963312692455
aI1
aF0.67707413878734279
aI3
aF0.66666666666666663
aI2
aF1
aI4
aF1
aI1
aF0.75
aa(lp10
I1
aF0.16842636652949616
aI0
aF0.45959050843239135
aI1
aF0.24107393140397093
aI3
aF0.67741935483870963
aI2
aF1
aI3
aF1
aI1
aF0.5357142857142857
aa(lp11
I1
aF0.24250035685759452
aI0
aF0.32745176925688702
aI1
aF0.49505827072512332
aI3
aF0.88
aI2
aF0.95238095238095233
aI4
aF1
aI1
aF0.625
aa.