(lp1
(lp2
(lp3
F0.59417124267458898
aF-0.17889697465862434
aF-0.38032454818326689
aF0.55812863762993592
aF-0.98767607251026324
aa(lp4
F0.98795101653259076
aF0.35406530536363684
aF0.45408765520057576
aF0.1407338785663399
aF-0.76990743039295639
aa(lp5
F-0.1817283270681235
aF-0.21409790688652747
aF-0.3089164420879803
aF0.29802495710383642
aF-0.073685086085532966
aaa(lp6
(lp7
F0.54678453110012759
aF-0.55779670346875443
aF-0.29508466820345997
aF-0.22843430687093794
aa(lp8
F0.64137650878020613
aF-0.48473783768464179
aF-0.072804830071237461
aF0.34529313573636927
aa(lp9
F-0.14012456735645148
aF0.56460066185261004
aF0.74673074804095596
aF-0.056080576286281013
aa(lp10
F-0.86965324831963453
aF0.49515872855321441
aF0.63605343525234237
aF0.2549405340514303
aa(lp11
F-0.013930745080797405
aF0.63318867297791814
aF0.76692787684648267
aF0.55757206133755821
aa(lp12
F-0.18213395285091144
aF0.14455705416968512
aF-1.2000215032900825
aF-0.93515405720710654
aaa.