(lp1
(lp2
(lp3
F1.7425946966002737
aF15.617745620201354
aF-0.16317876140641843
aF3.8069258199442584
aF-17.904727375460151
aa(lp4
F15.612998945875718
aF-11.71128196686265
aF-18.517549995687546
aF1.6279875821483398
aF-0.18968682653932381
aa(lp5
F-4.9346656215010247
aF-3.7807329112701189
aF15.151954938913967
aF-1.4050764544725094
aF5.4709483830436145
aaa(lp6
(lp7
F7.8861998517647276
aF-6.8294463485006762
aF-13.265886209248984
aF8.0754667581880959
aa(lp8
F-4.1137435002877387
aF13.427198114197905
aF-13.524657134096786
aF-2.2721368063565754
aa(lp9
F-13.50777310827819
aF0.48300625301078154
aF3.3334012591837761
aF13.873946994764093
aa(lp10
F0.38795841238608242
aF0.9727762609555628
aF-3.9449734408825869
aF-8.580681453825953
aa(lp11
F2.6185654643356879
aF-10.877677148051818
aF10.103311506732728
aF-5.4143316784602664
aa(lp12
F0.055409627269954999
aF-0.45308188062324839
aF-0.3927727946135966
aF-9.0601626414489065
aaa.