(lp1
(lp2
I1
aF0.27063806609897423
aI0
aF0.42668798867380331
aI1
aF0.87103764173378129
aI3
aF0.70967741935483875
aI2
aF1
aI4
aF0.52000000000000002
aI1
aF1
aa(lp3
I1
aF0.28826455586594335
aI0
aF0.38378816978203512
aI1
aF0.66782200831659477
aI3
aF0.73333333333333328
aI2
aF0.9375
aI4
aF1
aI1
aF0.75
aa(lp4
I1
aF0.27497266058556025
aI0
aF0.4104136736814481
aI1
aF0.65507507842274282
aI3
aF0.70967741935483875
aI2
aF1
aI4
aF1
aI1
aF0.7142857142857143
aa(lp5
I1
aF0.73301130612842214
aI1
aF0.32441993592218898
aI0
aF0.25497402739444219
aI2
aF0.45833333333333331
aI4
aF1
aI1
aF1
aI1
aF0.875
aa(lp6
I1
aF0.45628074877184888
aI0
aF0.36454647267981499
aI1
aF0.7451297699251529
aI3
aF0.66666666666666663
aI2
aF0.9375
aI4
aF0.90000000000000002
aI1
aF0.93333333333333335
aa(lp7
I1
aF0.36460992623028032
aI0
aF0.33668559681681287
aI1
aF0.78497047509377915
aI3
aF0.84615384615384615
aI2
aF0.90909090909090906
aI4
aF0.91666666666666663
aI1
aF1
aa(lp8
I1
aF0.20184487668474804
aI0
aF0.44112960535799028
aI1
aF0.78642794712303299
aI3
aF0.6875
aI2
aF1
aI4
aF0.9285714285714286
aI1
aF1
aa(lp9
I1
aF0.39027920257028792
aI0
aF0.41648963312692455
aI1
aF0.67707413878734279
aI3
aF0.66666666666666663
aI2
aF1
aI4
aF1
aI1
aF0.75
aa(lp10
I1
aF0.16842636652949616
aI0
aF0.45959050843239135
aI1
aF0.24107393140397093
aI3
aF0.67741935483870963
aI2
aF1
aI3
aF1
aI1
aF0.5357142857142857
aa(lp11
I1
aF0.24250035685759452
aI0
aF0.32745176925688702
aI1
aF0.49505827072512332
aI3
aF0.88
aI2
aF0.95238095238095233
aI4
aF1
aI1
aF0.625
aa(lp12
I1
aF0.54187919456174083
aI0
aF0.4022742436259259
aI1
aF0.88770851394350048
aI3
aF0.62857142857142856
aI2
aF0.9375
aI1
aF0.59999999999999998
aI1
aF1
aa(lp13
I1
aF0.16353213226206609
aI0
aF0.75588408649370364
aI1
aF0.30672790343909262
aI2
aF0.48888888888888887
aI1
aF0
aI3
aF1
aI1
aF0.5357142857142857
aa(lp14
I1
aF0.20047856974158174
aI0
aF0.3290636254729149
aI1
aF0.80629309824334638
aI3
aF0.88
aI2
aF0.95238095238095233
aI4
aF0.8666666666666667
aI1
aF1
aa(lp15
I1
aF0.61172331161815729
aI1
aF0.2335789433321136
aI1
aF0.79342366212601867
aI2
aF0.47826086956521741
aI4
aF1
aI4
aF0.875
aI1
aF1
aa(lp16
I1
aF0.39297077674425906
aI0
aF0.27855248865851656
aI1
aF0.66481827542227345
aI3
aF0.95454545454545459
aI2
aF0.84615384615384615
aI4
aF1
aI1
aF0.7142857142857143
aa(lp17
I1
aF0.42556126356430746
aI1
aF0.16734285225615531
aI1
aF0.88390588822944471
aI2
aF0.48888888888888887
aI4
aF0.75
aI1
aF0.54545454545454541
aI1
aF1
aa(lp18
I1
aF0.31116117095762719
aI1
aF0.089205288398738425
aI1
aF0.96146468310855782
aI2
aF0.75
aI3
aF0.65384615384615385
aI1
aF0.5
aI1
aF1
aa(lp19
I1
aF0.28937660908827012
aI0
aF0.25778569692808229
aI1
aF0.95982853054041994
aI3
aF0.94444444444444442
aI2
aF0.7857142857142857
aI1
aF0.5
aI1
aF1
aa(lp20
I1
aF0.33071887160922275
aI0
aF0.39810906964998249
aI1
aF0.78488177537140402
aI3
aF0.6875
aI2
aF0.9375
aI4
aF0.91666666666666663
aI1
aF1
aa(lp21
I1
aF0.25907072503885897
aI0
aF0.47916036239783411
aI1
aF0.80594069511582744
aI3
aF0.6470588235294118
aI2
aF1
aI4
aF0.9285714285714286
aI1
aF1
aa(lp22
I1
aF0.45654149906275387
aI0
aF0.38909041968007263
aI1
aF0.94192297827216809
aI3
aF0.66666666666666663
aI2
aF0.9375
aI1
aF0.54545454545454541
aI1
aF1
aa(lp23
I1
aF0.45635966161595287
aI1
aF0.38037240563087149
aI1
aF0.91014357283917446
aI2
aF0.45833333333333331
aI4
aF1
aI1
aF0.54545454545454541
aI1
aF1
aa(lp24
I1
aF0.30224382388317428
aI1
aF0.085304059723886994
aI0
aF0.78260046358364366
aI2
aF0.77777777777777779
aI3
aF0.6428571428571429
aI1
aF0.5357142857142857
aI1
aF0
aa(lp25
I1
aF0.16734326195208937
aI0
aF0.45388508953844886
aI1
aF0.73794809728899469
aI3
aF0.67741935483870963
aI2
aF1
aI4
aF0.91666666666666663
aI1
aF0.88235294117647056
aa(lp26
I1
aF0.54454395326353389
aI1
aF0.408282369124358
aI1
aF0.68878712822544497
aI2
aF0.45833333333333331
aI4
aF1
aI4
aF1
aI1
aF0.75
aa(lp27
I1
aF0.22959451776503914
aI0
aF0.49519711509568598
aI1
aF0.53333675240325118
aI3
aF0.62857142857142856
aI2
aF1
aI4
aF1
aI1
aF0.65217391304347827
aa(lp28
I1
aF0.44749732650728136
aI0
aF0.42455749198546577
aI0
aF0.29248375781597324
aI3
aF0.6470588235294118
aI2
aF1
aI1
aF0.75
aI1
aF0.52941176470588236
aa(lp29
I1
aF0.22821305558948035
aI0
aF0.41482528511651118
aI1
aF0.39997205922019963
aI3
aF0.70967741935483875
aI2
aF1
aI4
aF1
aI1
aF0.57692307692307687
aa(lp30
I1
aF0.13003919990348589
aI0
aF0.28376110699562307
aI1
aF0.28511995000016299
aI3
aF0.94444444444444442
aI2
aF0.95652173913043481
aI3
aF1
aI1
aF0.5357142857142857
aa(lp31
I1
aF0.50011667278317096
aI0
aF0.21207724168018693
aI1
aF0.62072270338646696
aI3
aF0.8666666666666667
aI2
aF0.61111111111111116
aI4
aF1
aI1
aF0.7142857142857143
aa(lp32
I1
aF0.29714328879029506
aI0
aF0.36646566254995105
aI1
aF0.86149132529056827
aI3
aF0.73333333333333328
aI2
aF0.9375
aI4
aF0.52000000000000002
aI1
aF1
aa(lp33
I1
aF0.47193839335630638
aI0
aF0.34011023938925056
aI0
aF0.35152947166546034
aI3
aF0.81481481481481477
aI2
aF0.90909090909090906
aI1
aF0.6428571428571429
aI1
aF0.54545454545454541
aa(lp34
I1
aF0.51441319661762108
aI0
aF0.48726482264599003
aI1
aF0.60309012121816308
aI3
aF0.5641025641025641
aI2
aF1
aI4
aF1
aI1
aF0.68181818181818177
aa(lp35
I1
aF0.2127441375601884
aI0
aF0.26641894434654534
aI1
aF0.80014028917533353
aI3
aF0.95454545454545459
aI2
aF0.91666666666666663
aI4
aF0.9285714285714286
aI1
aF1
aa(lp36
I1
aF0.56109789307681335
aI1
aF0.37253549234053995
aI1
aF0.78916156490711775
aI2
aF0.45833333333333331
aI4
aF1
aI4
aF0.875
aI1
aF1
aa(lp37
I1
aF0.15426158154596092
aI0
aF0.22952167083729469
aI1
aF0.79743135134715104
aI3
aF0.93333333333333335
aI2
aF0.75862068965517238
aI4
aF0.8125
aI1
aF1
aa(lp38
I0
aF0.27239351378221266
aI1
aF0.19859014790569907
aI1
aF0.50940143425518258
aI3
aF0.95454545454545459
aI1
aF0.66666666666666663
aI2
aF0.7857142857142857
aI1
aF0.61111111111111116
aa(lp39
I1
aF0.19283030606311014
aI0
aF0.39781205295823985
aI1
aF0.69082563918543827
aI3
aF0.73333333333333328
aI2
aF0.9375
aI4
aF1
aI1
aF0.75
aa(lp40
I1
aF0.38874969437665652
aI0
aF0.1738837415672676
aI1
aF0.69827642597103479
aI3
aF1
aI2
aF0.55000000000000004
aI4
aF1
aI1
aF0.75
aa(lp41
I1
aF0.34952378423130892
aI0
aF0.46403149033188462
aI1
aF0.57772920346345236
aI3
aF0.61111111111111116
aI2
aF1
aI4
aF1
aI1
aF0.68181818181818177
aa(lp42
I1
aF0.63551723036756635
aI0
aF0.63186537249374131
aI0
aF0.2729766102160408
aI3
aF0.43137254901960786
aI2
aF1
aI1
aF1
aI1
aF0.6470588235294118
aa(lp43
I1
aF0.62132083069825084
aI0
aF0.27592079364747013
aI0
aF0.15553674342622692
aI3
aF0.875
aI2
aF0.75862068965517238
aI1
aF0
aI1
aF0.7142857142857143
aa(lp44
I1
aF0.73962925517932832
aI1
aF0.28829943744545572
aI0
aF0.83023353254826027
aI2
aF0.47826086956521741
aI4
aF1
aI1
aF0.88235294117647056
aI1
aF0
aa(lp45
I1
aF0.49952273167730443
aI0
aF0.35902297227988855
aI1
aF0.70643244614893497
aI3
aF0.6875
aI2
aF0.94444444444444442
aI4
aF1
aI1
aF0.78947368421052633
aa(lp46
I1
aF0.49824914332348225
aI0
aF0.38177672251495831
aI1
aF0.91878563643437983
aI3
aF0.6470588235294118
aI2
aF0.9375
aI1
aF0.5714285714285714
aI1
aF1
aa(lp47
I1
aF0.59241432963472618
aI0
aF0.38661298178450887
aI1
aF0.82978453404528041
aI3
aF0.6470588235294118
aI2
aF0.83333333333333337
aI1
aF0.5625
aI1
aF1
aa(lp48
I1
aF0.81202815337949275
aI1
aF0.1906369827161235
aI0
aF0.59111369648730072
aI2
aF0.47826086956521741
aI4
aF0.76470588235294112
aI1
aF1
aI1
aF1
aa(lp49
I1
aF0.46911779954403399
aI0
aF0.42353198591668406
aI0
aF0.27389572571788445
aI3
aF0.6470588235294118
aI2
aF1
aI1
aF0.66666666666666663
aI1
aF0.57894736842105265
aa(lp50
I1
aF0.20195966622096195
aI0
aF0.37764829552594759
aI1
aF0.71023300833040859
aI3
aF0.73333333333333328
aI2
aF0.9375
aI4
aF1
aI1
aF0.83333333333333337
aa(lp51
I1
aF0.19839938668047374
aI0
aF0.37408014280520485
aI1
aF0.83521026065058224
aI3
aF0.73333333333333328
aI2
aF0.9375
aI4
aF0.59090909090909094
aI1
aF1
aa(lp52
I1
aF0.45167440731305164
aI0
aF0.48640135008789165
aI1
aF0.57124559714162626
aI3
aF0.59459459459459463
aI2
aF1
aI4
aF1
aI1
aF0.68181818181818177
aa(lp53
I1
aF0.20861226177729086
aI0
aF0.41130607702000965
aI1
aF0.60627669795348738
aI3
aF0.70967741935483875
aI2
aF1
aI4
aF1
aI1
aF0.68181818181818177
aa(lp54
I1
aF0.22636418837718797
aI0
aF0.19924328218323262
aI1
aF0.50066678297438316
aI3
aF0.91666666666666663
aI2
aF0.6470588235294118
aI4
aF1
aI1
aF0.65217391304347827
aa(lp55
I1
aF0.39408073330202531
aI0
aF0.48479284164890424
aI1
aF0.77449784177003245
aI3
aF0.61111111111111116
aI2
aF1
aI4
aF0.91666666666666663
aI1
aF1
aa(lp56
I1
aF0.15787647831896767
aI0
aF0.42689680418025544
aI1
aF0.22754590161812949
aI3
aF0.68965517241379315
aI2
aF1
aI3
aF1
aI1
aF0.5357142857142857
aa(lp57
I1
aF0.40695037345612939
aI0
aF0.31768369383871919
aI1
aF0.60624907612761281
aI3
aF0.95652173913043481
aI2
aF0.88
aI4
aF1
aI1
aF0.68181818181818177
aa(lp58
I1
aF0.21181413602726495
aI0
aF0.41943983208688407
aI1
aF0.72495107804966386
aI3
aF0.70967741935483875
aI2
aF1
aI4
aF1
aI1
aF0.83333333333333337
aa(lp59
I1
aF0.31333009289867231
aI0
aF0.46918755382406341
aI1
aF0.56313174957627876
aI3
aF0.6470588235294118
aI2
aF1
aI4
aF1
aI1
aF0.68181818181818177
aa(lp60
I1
aF0.24471779346647082
aI0
aF0.46664448664491187
aI1
aF0.77633542107674025
aI3
aF0.6470588235294118
aI2
aF1
aI4
aF0.9285714285714286
aI1
aF1
aa(lp61
I1
aF0.21933837083722307
aI0
aF0.41712642962979773
aI1
aF0.82730737366404072
aI3
aF0.70967741935483875
aI2
aF1
aI4
aF0.59090909090909094
aI1
aF1
aa(lp62
I1
aF0.30301139037309444
aI1
aF0.12740611796413692
aI1
aF0.95579272535551174
aI2
aF0.55000000000000004
aI3
aF1
aI1
aF0.5
aI1
aF1
aa(lp63
I1
aF0.2722785769953715
aI0
aF0.4357097368431968
aI1
aF0.70074741751369185
aI3
aF0.70967741935483875
aI2
aF1
aI4
aF1
aI1
aF0.75
aa(lp64
I1
aF0.26885917218291266
aI0
aF0.20233987050516344
aI1
aF0.85508633230714359
aI3
aF0.91666666666666663
aI2
aF0.6470588235294118
aI4
aF0.52000000000000002
aI1
aF1
aa(lp65
I1
aF0.67303476359299419
aI0
aF0.28484215132558233
aI0
aF0.44408566024419494
aI3
aF0.88
aI2
aF0.75862068965517238
aI1
aF0.6875
aI1
aF1
aa(lp66
I1
aF0.67197119413358453
aI0
aF0.14668985057219597
aI0
aF0.72696466933825987
aI3
aF1
aI2
aF0.42307692307692307
aI1
aF0.75
aI1
aF0
aa(lp67
I1
aF0.50076226994437534
aI0
aF0.46816371133214807
aI0
aF0.15959375886903793
aI3
aF0.5641025641025641
aI2
aF1
aI4
aF1
aI1
aF0.68181818181818177
aa(lp68
I1
aF0.088102311304133041
aI0
aF0.31840116230184423
aI1
aF0.33381621231764225
aI3
aF1
aI2
aF1
aI3
aF0.6071428571428571
aI1
aF0.57692307692307687
aa(lp69
I1
aF0.29986731503849273
aI0
aF0.29871887310931766
aI1
aF0.78871146321573005
aI3
aF0.95652173913043481
aI2
aF0.95652173913043481
aI4
aF0.9285714285714286
aI1
aF1
aa(lp70
I1
aF0.42000865375110708
aI0
aF0.27000907720559963
aI1
aF0.59191611015326628
aI3
aF0.95454545454545459
aI2
aF0.81481481481481477
aI4
aF1
aI1
aF0.68181818181818177
aa(lp71
I1
aF0.3562221939426764
aI0
aF0.4538763612345853
aI0
aF0.29019746271463198
aI3
aF0.6470588235294118
aI2
aF1
aI1
aF0.75
aI1
aF0.5
aa(lp72
I1
aF0.50198915952265222
aI0
aF0.34917986061422401
aI1
aF0.75233522150300369
aI3
aF0.73333333333333328
aI2
aF0.90476190476190477
aI4
aF0.875
aI1
aF0.93333333333333335
aa(lp73
I1
aF0.54379973476203447
aI1
aF0.33206654895843934
aI1
aF0.64612536061365455
aI2
aF0.45833333333333331
aI4
aF1
aI4
aF1
aI1
aF0.7142857142857143
aa(lp74
I1
aF0.21991018676816887
aI0
aF0.42609555489312978
aI1
aF0.90420041475171198
aI3
aF0.70967741935483875
aI2
aF1
aI4
aF0.52000000000000002
aI1
aF1
aa(lp75
I1
aF0.43775703581441694
aI0
aF0.45011731327822235
aI0
aF0.55084303722948924
aI3
aF0.62857142857142856
aI2
aF1
aI1
aF0.56521739130434778
aI1
aF1
aa(lp76
I1
aF0.27418482814860701
aI0
aF0.36591804388439697
aI1
aF0.8849598001420671
aI3
aF0.73333333333333328
aI2
aF0.9375
aI4
aF0.52000000000000002
aI1
aF1
aa(lp77
I1
aF0.4418058656106495
aI1
aF0.28362677295763472
aI1
aF0.74057423116430798
aI2
aF0.47826086956521741
aI4
aF1
aI4
aF1
aI1
aF0.88235294117647056
aa(lp78
I1
aF0.43470536793102876
aI0
aF0.32173590546614073
aI1
aF0.71645557955034267
aI3
aF0.84615384615384615
aI2
aF0.86956521739130432
aI4
aF1
aI1
aF0.83333333333333337
aa(lp79
I1
aF0.35683513924479993
aI0
aF0.66040933556947623
aI1
aF0.78198796027380946
aI3
aF0.46808510638297873
aI2
aF1
aI4
aF0.91666666666666663
aI1
aF1
aa(lp80
I1
aF0.35217019006867045
aI1
aF0.069613552670786949
aI1
aF0.75298809910119868
aI2
aF0.83333333333333337
aI3
aF0.55555555555555558
aI4
aF0.90909090909090906
aI1
aF0.93333333333333335
aa(lp81
I1
aF0.32172088861095405
aI0
aF0.24860601224046441
aI0
aF0.54015841291013922
aI3
aF0.94117647058823528
aI2
aF0.73333333333333328
aI1
aF0.52000000000000002
aI1
aF1
aa(lp82
I1
aF0.4605349556506535
aI0
aF0.63179292259162434
aI1
aF0.95858517966980605
aI3
aF0.46808510638297873
aI2
aF1
aI1
aF0.56521739130434778
aI1
aF1
aa(lp83
I1
aF0.60661394807927993
aI0
aF0.28557740723091474
aI1
aF0.67342878274480245
aI3
aF0.91666666666666663
aI2
aF0.7857142857142857
aI4
aF1
aI1
aF0.75
aa(lp84
I1
aF0.27268126833405804
aI0
aF0.23462290867870284
aI1
aF0.73163042302304482
aI3
aF0.93333333333333335
aI2
aF0.70967741935483875
aI4
aF1
aI1
aF0.88235294117647056
aa(lp85
I1
aF0.17584651895883252
aI0
aF0.26786572642775319
aI1
aF0.79629913519272499
aI3
aF0.95238095238095233
aI2
aF0.91666666666666663
aI4
aF0.8666666666666667
aI1
aF1
aa(lp86
I1
aF0.2001042967116633
aI0
aF0.31158821957558924
aI1
aF0.90193807342632715
aI3
aF0.95652173913043481
aI2
aF0.95652173913043481
aI4
aF0.52000000000000002
aI1
aF1
aa(lp87
I1
aF0.31961317912698906
aI0
aF0.44808265163825522
aI1
aF0.92941030531471946
aI3
aF0.6875
aI2
aF1
aI4
aF0.52000000000000002
aI1
aF1
aa(lp88
I1
aF0.35750649829727388
aI0
aF0.21223164690120766
aI1
aF0.85770114147841858
aI3
aF0.9285714285714286
aI2
aF0.6470588235294118
aI1
aF0.52173913043478259
aI1
aF1
aa(lp89
I1
aF0.39591658541748587
aI0
aF0.36277368023741141
aI1
aF0.68046208505013039
aI3
aF0.6875
aI2
aF0.9375
aI4
aF1
aI1
aF0.75
aa(lp90
I1
aF0.14611973073608997
aI0
aF0.30049288237838123
aI1
aF0.20914246052708307
aI3
aF0.95238095238095233
aI2
aF0.95652173913043481
aI3
aF1
aI1
aF0.5357142857142857
aa(lp91
I1
aF0.19838260174693245
aI0
aF0.3616870863099495
aI1
aF0.68133411615791151
aI3
aF0.73333333333333328
aI2
aF0.9375
aI4
aF1
aI1
aF0.75
aa(lp92
I1
aF0.21566986935765009
aI0
aF0.36475721656954929
aI1
aF0.68107878380521147
aI3
aF0.73333333333333328
aI2
aF0.9375
aI4
aF1
aI1
aF0.75
aa(lp93
I1
aF0.57380654352532001
aI1
aF0.52992339973993385
aI0
aF0.56081317499606154
aI2
aF0.43137254901960786
aI4
aF1
aI1
aF0.65000000000000002
aI1
aF1
aa(lp94
I1
aF0.65750749975901523
aI0
aF0.31329838864820458
aI0
aF0.68305801603398442
aI3
aF0.88
aI2
aF0.7857142857142857
aI1
aF0.7142857142857143
aI1
aF0
aa(lp95
I1
aF0.31346731369003977
aI0
aF0.2690246166843171
aI1
aF0.56125856839699451
aI3
aF0.95454545454545459
aI2
aF0.91666666666666663
aI4
aF1
aI1
aF0.68181818181818177
aa(lp96
I1
aF0.4447536372323162
aI0
aF0.40442104169782656
aI1
aF0.50675470234192155
aI3
aF0.6470588235294118
aI2
aF1
aI4
aF1
aI1
aF0.65217391304347827
aa(lp97
I1
aF0.59292694188842354
aI0
aF0.27293709660283261
aI1
aF0.82720211311210512
aI3
aF0.91304347826086951
aI2
aF0.75862068965517238
aI1
aF0.5625
aI1
aF1
aa(lp98
I1
aF0.26394215596854431
aI0
aF0.15656395634603981
aI1
aF0.67304701748505069
aI3
aF1
aI2
aF0.5
aI4
aF1
aI1
aF0.75
aa(lp99
I1
aF0.44706689870934624
aI0
aF0.40298702589334845
aI1
aF0.90465764684280925
aI3
aF0.6470588235294118
aI2
aF1
aI1
aF0.54545454545454541
aI1
aF1
aa(lp100
I1
aF0.3555518179688606
aI0
aF0.33820843972511871
aI1
aF0.81683120878727633
aI3
aF0.84615384615384615
aI2
aF0.90909090909090906
aI4
aF0.6470588235294118
aI1
aF1
aa(lp101
I1
aF0.56220988327728494
aI1
aF0.13198887583309216
aI1
aF0.7864481120446708
aI2
aF0.53658536585365857
aI4
aF0.54545454545454541
aI4
aF0.875
aI1
aF1
aa(lp102
I1
aF0.23704997609845224
aI0
aF0.26361184471659915
aI1
aF0.66145321903672594
aI3
aF0.94999999999999996
aI2
aF0.84615384615384615
aI4
aF1
aI1
aF0.7142857142857143
aa(lp103
I1
aF0.57345334697176598
aI0
aF0.34823339401376352
aI0
aF0.4954414768412555
aI3
aF0.73333333333333328
aI2
aF0.86363636363636365
aI1
aF0.65000000000000002
aI1
aF1
aa(lp104
I1
aF0.60232249651246872
aI0
aF0.0087450550653265235
aI1
aF0.74312203717875192
aI1
aF0
aI2
aF0.42307692307692307
aI4
aF0.8571428571428571
aI1
aF0.93333333333333335
aa(lp105
I1
aF0.65374755501598447
aI0
aF0.23679452265636303
aI1
aF0.83355003582970066
aI3
aF0.82352941176470584
aI2
aF0.61111111111111116
aI1
aF0.59999999999999998
aI1
aF1
aa(lp106
I1
aF0.37269324529444459
aI1
aF0.1563360003192682
aI1
aF0.59350908787484891
aI2
aF0.5
aI3
aF0.5
aI4
aF1
aI1
aF0.68181818181818177
aa(lp107
I1
aF0.79430083862301692
aI1
aF0.25614818942583639
aI0
aF0.37644435597084769
aI2
aF0.47826086956521741
aI4
aF0.9285714285714286
aI1
aF1
aI1
aF1
aa(lp108
I1
aF0.46692059246664475
aI0
aF0.18827777447467708
aI1
aF0.75863439202332039
aI3
aF1
aI2
aF0.57894736842105265
aI4
aF0.90000000000000002
aI1
aF0.93333333333333335
aa(lp109
I1
aF0.18521279318345729
aI0
aF0.23383619294543001
aI1
aF0.60993963207250856
aI3
aF0.93333333333333335
aI2
aF0.70967741935483875
aI4
aF1
aI1
aF0.68181818181818177
aa(lp110
I1
aF0.40132859552065681
aI0
aF0.35425737073771824
aI1
aF0.62022014845776641
aI3
aF0.73333333333333328
aI2
aF0.94444444444444442
aI4
aF1
aI1
aF0.7142857142857143
aa(lp111
I1
aF0.23795052869013678
aI0
aF0.92050083391165372
aI1
aF0.62647294429926104
aI2
aF0.47826086956521741
aI1
aF0
aI4
aF1
aI1
aF0.7142857142857143
aa(lp112
I1
aF0.23860755557537849
aI0
aF0.31531707582980284
aI1
aF0.46057827287215236
aI3
aF0.95652173913043481
aI2
aF0.95652173913043481
aI4
aF1
aI1
aF0.59999999999999998
aa(lp113
I1
aF0.43902783774570908
aI0
aF0.49814369967450844
aI1
aF0.77669178724656063
aI3
aF0.57894736842105265
aI2
aF1
aI4
aF0.90909090909090906
aI1
aF1
aa(lp114
I1
aF0.26436297773884976
aI1
aF0.14984719620766407
aI1
aF0.68405820939046524
aI2
aF0.5
aI3
aF1
aI4
aF1
aI1
aF0.75
aa(lp115
I1
aF0.47180383710417861
aI0
aF0.55848973760651777
aI1
aF0.76332686547679718
aI3
aF0.5
aI2
aF1
aI4
aF0.90000000000000002
aI1
aF0.93333333333333335
aa(lp116
I1
aF0.36334595458416119
aI0
aF0.25670447454135137
aI1
aF0.4259206090287937
aI3
aF0.94444444444444442
aI2
aF0.73333333333333328
aI4
aF1
aI1
aF0.59999999999999998
aa(lp117
I1
aF0.16692928653470096
aI0
aF0.25811486161474273
aI1
aF0.18421023984603979
aI3
aF0.94444444444444442
aI2
aF0.81481481481481477
aI3
aF1
aI1
aF0.5357142857142857
aa(lp118
I1
aF0.20239399838530658
aI0
aF0.33561617725144899
aI1
aF0.32188068297741024
aI3
aF0.88
aI2
aF0.95238095238095233
aI4
aF1
aI1
aF0.57692307692307687
aa(lp119
I1
aF0.4891383709354552
aI0
aF0.56115536992024295
aI1
aF0.89102271053072524
aI3
aF0.48888888888888887
aI2
aF1
aI1
aF0.5714285714285714
aI1
aF1
aa(lp120
I1
aF0.25751189438914202
aI0
aF0.21695279152992875
aI1
aF0.85733486557809191
aI3
aF0.9285714285714286
aI2
aF0.6875
aI4
aF0.52000000000000002
aI1
aF1
aa(lp121
I1
aF0.28379842950367529
aI0
aF0.3950608849386168
aI1
aF0.39999061196982955
aI3
aF0.73333333333333328
aI2
aF0.9375
aI4
aF1
aI1
aF0.57692307692307687
aa(lp122
I1
aF0.19190432614771435
aI1
aF0.16895488236079426
aI1
aF0.68133735943715246
aI2
aF0.48888888888888887
aI3
aF1
aI4
aF1
aI1
aF0.75
aa(lp123
I1
aF0.40369461025122311
aI0
aF0.29468675061245986
aI1
aF0.49598979233642515
aI3
aF0.95652173913043481
aI2
aF0.88
aI4
aF1
aI1
aF0.625
aa(lp124
I1
aF0.37760409400805528
aI0
aF0.50179004612340594
aI0
aF0.92449434954634579
aI3
aF0.57894736842105265
aI2
aF1
aI1
aF0.57692307692307687
aI1
aF0
aa(lp125
I1
aF0.2025237750749137
aI0
aF0.42120191746863844
aI1
aF0.64908539503701523
aI3
aF0.70967741935483875
aI2
aF1
aI4
aF1
aI1
aF0.7142857142857143
aa(lp126
I1
aF0.3676563695237175
aI0
aF0.45998655013361189
aI1
aF0.69687559655728726
aI3
aF0.6470588235294118
aI2
aF1
aI4
aF1
aI1
aF0.75
aa(lp127
I1
aF0.18467270050826723
aI0
aF0.38778222383478589
aI1
aF0.63133568506458837
aI3
aF0.73333333333333328
aI2
aF0.9375
aI4
aF1
aI1
aF0.7142857142857143
aa(lp128
I1
aF0.33853702138631792
aI0
aF0.37229822619023767
aI1
aF0.77830393258406771
aI3
aF0.6875
aI2
aF0.9375
aI4
aF0.91666666666666663
aI1
aF1
aa(lp129
I1
aF0.22756760395693465
aI0
aF0.32585697845346751
aI1
aF0.34131130307790414
aI3
aF0.88
aI2
aF0.95238095238095233
aI4
aF1
aI1
aF0.57692307692307687
aa(lp130
I1
aF0.45461810594960839
aI0
aF0.40053509924200636
aI1
aF0.81062059213907811
aI3
aF0.66666666666666663
aI2
aF0.9375
aI4
aF0.76923076923076927
aI1
aF1
aa(lp131
I1
aF0.50619370771245253
aI0
aF0.49161286357970013
aI1
aF0.62662483114700962
aI3
aF0.55000000000000004
aI2
aF1
aI4
aF1
aI1
aF0.7142857142857143
aa(lp132
I1
aF0.21050405577702824
aI0
aF0.46652113765152237
aI1
aF0.81186344953216261
aI3
aF0.6470588235294118
aI2
aF1
aI4
aF0.76470588235294112
aI1
aF1
aa(lp133
I1
aF0.17738478492309129
aI0
aF0.39579863000946791
aI1
aF0.60916158531413134
aI3
aF0.72413793103448276
aI2
aF0.9375
aI4
aF0.8571428571428571
aI1
aF0.68181818181818177
aa(lp134
I1
aF0.82705276358183843
aI1
aF0.39249609350169046
aI0
aF0.073874988216679371
aI2
aF0.45833333333333331
aI4
aF0.55000000000000004
aI1
aF0
aI1
aF1
aa(lp135
I1
aF0.19490786140079241
aI0
aF0.47112672572732328
aI1
aF0.80173970208567225
aI3
aF0.6470588235294118
aI2
aF1
aI4
aF0.9285714285714286
aI1
aF1
aa(lp136
I1
aF0.24191509213463191
aI0
aF0.33865533699270867
aI1
aF0.70385534191093468
aI3
aF0.88
aI2
aF0.95238095238095233
aI4
aF1
aI1
aF0.78947368421052633
aa(lp137
I1
aF0.56170412135365777
aI1
aF0.1809794575060194
aI0
aF0.58145536706291601
aI2
aF0.48888888888888887
aI4
aF0.8571428571428571
aI1
aF0.65000000000000002
aI1
aF1
aa(lp138
I1
aF0.33404965758270677
aI0
aF0.2545929108166467
aI1
aF0.72162767071464673
aI3
aF0.94444444444444442
aI2
aF0.73333333333333328
aI4
aF1
aI1
aF0.83333333333333337
aa(lp139
I1
aF0.26102934131094147
aI0
aF0.27880971621865858
aI1
aF0.84457812949069011
aI3
aF0.95454545454545459
aI2
aF0.91666666666666663
aI4
aF0.52000000000000002
aI1
aF1
aa(lp140
I1
aF0.40841315076351181
aI0
aF0.18115447885082347
aI1
aF0.79297901870522247
aI3
aF1
aI2
aF0.59459459459459463
aI4
aF0.91666666666666663
aI1
aF1
aa(lp141
I1
aF0.24455655242604735
aI0
aF0.3193674589791734
aI1
aF0.59763598207132873
aI3
aF0.88
aI2
aF0.95238095238095233
aI4
aF1
aI1
aF0.68181818181818177
aa(lp142
I1
aF0.34183264916443812
aI0
aF0.3565411735948788
aI1
aF0.72739186293604785
aI3
aF0.73333333333333328
aI2
aF0.94444444444444442
aI4
aF1
aI1
aF0.83333333333333337
aa(lp143
I1
aF0.52903000316324345
aI0
aF0.52541794610239156
aI0
aF0.81131348981826801
aI3
aF0.48888888888888887
aI2
aF1
aI1
aF0.65217391304347827
aI1
aF0
aa(lp144
I1
aF0.32646057418215013
aI0
aF0.36476330522060951
aI1
aF0.47036496727329347
aI3
aF0.6875
aI2
aF0.9375
aI4
aF1
aI1
aF0.59999999999999998
aa(lp145
I1
aF0.3001687257486233
aI0
aF0.65648018155275478
aI1
aF0.3900279124750472
aI3
aF0.48888888888888887
aI2
aF1
aI4
aF1
aI1
aF0.57692307692307687
aa(lp146
I1
aF0.52457817699531339
aI0
aF0.27547597139429891
aI0
aF0.55285973494588492
aI3
aF0.91304347826086951
aI2
aF0.7857142857142857
aI1
aF0.61904761904761907
aI1
aF1
aa(lp147
I1
aF0.39856964393707328
aI0
aF0.18822714206829838
aI1
aF0.52288281438779982
aI3
aF1
aI2
aF0.59459459459459463
aI4
aF1
aI1
aF0.65217391304347827
aa(lp148
I1
aF0.46868859490929782
aI0
aF0.48145162655419205
aI1
aF0.73982778579288488
aI3
aF0.59459459459459463
aI2
aF1
aI4
aF1
aI1
aF0.88235294117647056
aa(lp149
I1
aF0.62536481588217985
aI0
aF0.59454135873456515
aI0
aF0.49164698210470614
aI3
aF0.43137254901960786
aI2
aF1
aI1
aF0.68421052631578949
aI1
aF1
aa(lp150
I1
aF0.59836439331817703
aI1
aF0.13887857802798598
aI1
aF0.85253507408180806
aI2
aF0.52380952380952384
aI4
aF0.59999999999999998
aI1
aF0.63157894736842102
aI1
aF1
aa(lp151
I1
aF0.3386757028851195
aI0
aF0.27268119022117876
aI1
aF0.50466215444726592
aI3
aF0.95454545454545459
aI2
aF0.84615384615384615
aI4
aF1
aI1
aF0.65217391304347827
aa(lp152
I1
aF0.3955467194028941
aI0
aF0.31306612275013701
aI1
aF0.56823919637372799
aI3
aF0.95652173913043481
aI2
aF0.88
aI4
aF1
aI1
aF0.68181818181818177
aa(lp153
I1
aF0.56018774088173295
aI0
aF0.30577549911530355
aI1
aF0.86916635316699897
aI3
aF0.91666666666666663
aI2
aF0.7857142857142857
aI1
aF0.63157894736842102
aI1
aF1
aa(lp154
I1
aF0.63070309399486457
aI0
aF0.44362918889361569
aI1
aF0.93671821723364279
aI3
aF0.57894736842105265
aI2
aF0.93333333333333335
aI1
aF0.66666666666666663
aI1
aF1
aa(lp155
I1
aF0.20345980830311616
aI0
aF0.43067360705507629
aI1
aF0.82129223969934484
aI3
aF0.70967741935483875
aI2
aF1
aI4
aF0.59090909090909094
aI1
aF1
aa(lp156
I1
aF0.71950407727802823
aI1
aF0.13564930056998192
aI1
aF0.82546553697512459
aI2
aF0.52380952380952384
aI4
aF0.7142857142857143
aI1
aF0.75
aI1
aF1
aa(lp157
I1
aF0.24619780569182037
aI0
aF0.67032142721161703
aI1
aF0.52815292175292505
aI3
aF0.48888888888888887
aI2
aF1
aI4
aF1
aI1
aF0.65217391304347827
aa(lp158
I1
aF0.25744458384864044
aI0
aF0.29346151927802966
aI1
aF0.73980421530730889
aI3
aF0.95652173913043481
aI2
aF0.95652173913043481
aI4
aF1
aI1
aF0.88235294117647056
aa(lp159
I1
aF0.50045972338371125
aI0
aF0.41297886460502808
aI0
aF0.96802807269840885
aI3
aF0.61111111111111116
aI2
aF1
aI1
aF0.65217391304347827
aI1
aF0
aa(lp160
I1
aF0.34881739441908799
aI1
aF0.077548818311159451
aI1
aF0.52774634542522392
aI2
aF0.75
aI3
aF0.5625
aI4
aF1
aI1
aF0.65217391304347827
aa(lp161
I1
aF0.24446425217187562
aI1
aF0.07270151918784229
aI1
aF0.42991558732223656
aI2
aF0.76923076923076927
aI3
aF0.5757575757575758
aI4
aF1
aI1
aF0.59999999999999998
aa(lp162
I1
aF0.39222202142524976
aI0
aF0.27910421050715273
aI1
aF0.78201415300232091
aI3
aF0.95454545454545459
aI2
aF0.84615384615384615
aI4
aF0.91666666666666663
aI1
aF1
aa(lp163
I1
aF0.26814401231438745
aI0
aF0.50952462961755662
aI1
aF0.75890170690566983
aI3
aF0.57894736842105265
aI2
aF1
aI4
aF0.92307692307692313
aI1
aF0.93333333333333335
aa(lp164
I1
aF0.45950990420196991
aI1
aF0.15333944281727385
aI1
aF0.66789678158645693
aI2
aF0.5
aI4
aF0.59999999999999998
aI4
aF1
aI1
aF0.75
aa(lp165
I1
aF0.30992098338341678
aI0
aF0.22782188531920389
aI1
aF0.71287177265143342
aI3
aF0.93333333333333335
aI2
aF0.70967741935483875
aI4
aF1
aI1
aF0.83333333333333337
aa(lp166
I1
aF0.53703530791113174
aI1
aF0.18404311308683974
aI0
aF0.21602598801380923
aI2
aF0.47826086956521741
aI4
aF1
aI4
aF1
aI1
aF0.68181818181818177
aa(lp167
I1
aF0.27122910422174584
aI0
aF0.34897201447577408
aI1
aF0.75719590530086323
aI3
aF0.84615384615384615
aI2
aF0.94999999999999996
aI4
aF0.92307692307692313
aI1
aF0.93333333333333335
aa(lp168
I1
aF0.65619014761043926
aI1
aF0.25391856523101597
aI1
aF0.92641197159394251
aI2
aF0.47826086956521741
aI4
aF1
aI1
aF0.66666666666666663
aI1
aF1
aa(lp169
I1
aF0.17336263975041089
aI0
aF0.55438597836222658
aI1
aF0.59948199378955525
aI3
aF0.52500000000000002
aI2
aF1
aI4
aF0.8571428571428571
aI1
aF0.68181818181818177
aa(lp170
I1
aF0.20845340433854287
aI0
aF0.40830242894732749
aI1
aF0.71961315355479694
aI3
aF0.70967741935483875
aI2
aF1
aI4
aF1
aI1
aF0.83333333333333337
aa(lp171
I0
aF0.32063612128725549
aI1
aF0.24443074244515295
aI1
aF0.59808602045951553
aI3
aF0.88
aI1
aF0.63636363636363635
aI2
aF0.80000000000000004
aI1
aF0.61538461538461542
aa(lp172
I1
aF0.33914198772711568
aI0
aF0.37312063981652133
aI1
aF0.81272547126361872
aI3
aF0.6875
aI2
aF0.9375
aI4
aF0.73333333333333328
aI1
aF1
aa(lp173
I1
aF0.38377410908007314
aI1
aF0.12713688512475452
aI1
aF0.81014966417017864
aI2
aF0.55000000000000004
aI3
aF0.75
aI4
aF0.7857142857142857
aI1
aF1
aa(lp174
I1
aF0.49545790478678919
aI0
aF0.41348374195821902
aI1
aF0.67581841271111998
aI3
aF0.62857142857142856
aI2
aF1
aI4
aF1
aI1
aF0.75
aa(lp175
I1
aF0.32210863631567865
aI1
aF0.24755259714284628
aI1
aF0.43712921799930671
aI2
aF0.47826086956521741
aI4
aF1
aI4
aF1
aI1
aF0.59999999999999998
aa(lp176
I1
aF0.3320365346648706
aI0
aF0.43431772377512878
aI0
aF0.69774635197439749
aI3
aF0.66666666666666663
aI2
aF1
aI1
aF0.57692307692307687
aI1
aF0
aa(lp177
I1
aF0.3009022723981577
aI0
aF0.69850760868195383
aI1
aF0.6628656466453855
aI3
aF0.48888888888888887
aI2
aF1
aI4
aF1
aI1
aF0.7142857142857143
aa(lp178
I1
aF0.2874542952893484
aI0
aF0.28964938235151783
aI1
aF0.51400930237697828
aI3
aF0.95652173913043481
aI2
aF0.95652173913043481
aI4
aF1
aI1
aF0.65217391304347827
aa(lp179
I1
aF0.30394931458303331
aI0
aF0.48149791022473309
aI1
aF0.79539227416325198
aI3
aF0.6470588235294118
aI2
aF1
aI4
aF0.9285714285714286
aI1
aF1
aa(lp180
I1
aF0.54496071414525971
aI0
aF0.41059574188519976
aI1
aF0.83498299029930201
aI3
aF0.61111111111111116
aI2
aF1
aI1
aF0.52941176470588236
aI1
aF1
aa(lp181
I1
aF0.27347660961652076
aI0
aF0.2515252330025366
aI1
aF0.63961549874115597
aI3
aF0.94444444444444442
aI2
aF0.7857142857142857
aI4
aF1
aI1
aF0.7142857142857143
aa(lp182
I1
aF0.18524719395228251
aI0
aF0.43357830372462369
aI1
aF0.58157256982953609
aI3
aF0.70967741935483875
aI2
aF1
aI4
aF1
aI1
aF0.68181818181818177
aa(lp183
I1
aF0.17688642257870169
aI0
aF0.37923961390198357
aI1
aF0.79929810788979438
aI3
aF0.72413793103448276
aI2
aF0.9375
aI4
aF0.8666666666666667
aI1
aF1
aa(lp184
I1
aF0.53143352701438396
aI0
aF0.33551951914311051
aI1
aF0.6520404699561716
aI3
aF0.81481481481481477
aI2
aF0.83333333333333337
aI4
aF1
aI1
aF0.7142857142857143
aa(lp185
I1
aF0.24531416475335843
aI0
aF0.9498762611802205
aI1
aF0.50481983799842389
aI2
aF0.47826086956521741
aI1
aF0
aI4
aF1
aI1
aF0.65217391304347827
aa(lp186
I1
aF0.38981340835698874
aI0
aF0.46354720439734032
aI1
aF0.77246242215278893
aI3
aF0.61111111111111116
aI2
aF1
aI4
aF0.91666666666666663
aI1
aF1
aa(lp187
I1
aF0.48173747791458377
aI0
aF0.41860995174530724
aI1
aF0.93496048053594305
aI3
aF0.6470588235294118
aI2
aF1
aI1
aF0.54545454545454541
aI1
aF1
aa(lp188
I1
aF0.13835214597134682
aI0
aF0.399822331244714
aI1
aF0.7615857859920544
aI3
aF0.69230769230769229
aI2
aF0.9375
aI4
aF0.70588235294117652
aI1
aF0.93333333333333335
aa(lp189
I1
aF0.4457803173697189
aI1
aF0.072784266687761723
aI1
aF0.78470914382593171
aI2
aF0.76923076923076927
aI3
aF0.52777777777777779
aI4
aF0.90909090909090906
aI1
aF1
aa(lp190
I1
aF0.28440768396331328
aI0
aF0.86868756580637829
aI1
aF0.74979409177982759
aI2
aF0.47826086956521741
aI1
aF0
aI4
aF0.92307692307692313
aI1
aF0.93333333333333335
aa(lp191
I1
aF0.40496566767413289
aI0
aF0.44693122130933161
aI1
aF0.74844288039977536
aI3
aF0.6470588235294118
aI2
aF1
aI4
aF0.90909090909090906
aI1
aF0.93333333333333335
aa(lp192
I1
aF0.24758485872070257
aI0
aF0.32220834006553578
aI1
aF0.77797521025996053
aI3
aF0.88
aI2
aF0.95238095238095233
aI4
aF0.9285714285714286
aI1
aF1
aa(lp193
I1
aF0.68122682904423837
aI0
aF0.30508120302610164
aI0
aF0.27860260053634989
aI3
aF0.88
aI2
aF0.75862068965517238
aI1
aF1
aI1
aF0.6875
aa(lp194
I1
aF0.25367308986244452
aI0
aF0.4259618723667673
aI1
aF0.79327906918345525
aI3
aF0.70967741935483875
aI2
aF1
aI4
aF0.9285714285714286
aI1
aF1
aa(lp195
I1
aF0.34936600138380958
aI0
aF0.34257983032832739
aI1
aF0.71811457049978789
aI3
aF0.84615384615384615
aI2
aF0.90909090909090906
aI4
aF1
aI1
aF0.83333333333333337
aa(lp196
I1
aF0.29615380520369905
aI0
aF0.37846744441809421
aI1
aF0.48184111346773573
aI3
aF0.73333333333333328
aI2
aF0.9375
aI4
aF1
aI1
aF0.59999999999999998
aa(lp197
I1
aF0.34061388463384812
aI1
aF0.25003042838587131
aI1
aF0.77829385877525292
aI2
aF0.47826086956521741
aI4
aF1
aI4
aF0.91666666666666663
aI1
aF1
aa(lp198
I1
aF0.24241574655767706
aI0
aF0.36822141858912871
aI1
aF0.52232486143244961
aI3
aF0.73333333333333328
aI2
aF0.9375
aI4
aF1
aI1
aF0.65217391304347827
aa(lp199
I1
aF0.2072822810407885
aI0
aF0.30301334777724021
aI0
aF0.21924962959784478
aI3
aF0.95652173913043481
aI2
aF0.95652173913043481
aI4
aF0.66666666666666663
aI1
aF0.56000000000000005
aa(lp200
I1
aF0.22686331585244712
aI0
aF0.18006438442602613
aI1
aF0.66002725163125797
aI3
aF1
aI2
aF0.61111111111111116
aI4
aF1
aI1
aF0.7142857142857143
aa(lp201
I1
aF0.18362281372994005
aI0
aF0.17995312474010805
aI1
aF0.5929136529982072
aI3
aF1
aI2
aF0.61111111111111116
aI4
aF1
aI1
aF0.68181818181818177
aa(lp202
I1
aF0.20613229132819244
aI0
aF0.23186147003296154
aI1
aF0.60361072252188397
aI3
aF0.93333333333333335
aI2
aF0.70967741935483875
aI4
aF1
aI1
aF0.68181818181818177
aa(lp203
I1
aF0.28795282809475919
aI0
aF0.64866403300124431
aI1
aF0.51082921041759088
aI3
aF0.5
aI2
aF1
aI4
aF1
aI1
aF0.65217391304347827
aa(lp204
I1
aF0.49638265647747037
aI0
aF0.2516659410012283
aI1
aF0.54833694046563308
aI3
aF0.89473684210526316
aI2
aF0.70967741935483875
aI4
aF1
aI1
aF0.65217391304347827
aa(lp205
I1
aF0.29929410358542696
aI0
aF0.40232997219164912
aI1
aF0.59929768458297172
aI3
aF0.70967741935483875
aI2
aF1
aI4
aF1
aI1
aF0.68181818181818177
aa(lp206
I1
aF0.1757816539447592
aI0
aF0.27844374799630089
aI1
aF0.67398893332471854
aI3
aF0.95238095238095233
aI2
aF0.91666666666666663
aI4
aF0.88888888888888884
aI1
aF0.75
aa(lp207
I1
aF0.097239962281285175
aI0
aF0.24108879413406681
aI1
aF0.80646016199065629
aI3
aF1
aI2
aF0.84210526315789469
aI4
aF0.42857142857142855
aI1
aF1
aa(lp208
I1
aF0.24940467431682467
aI0
aF0.47449348155361581
aI1
aF0.87002983494113373
aI3
aF0.6470588235294118
aI2
aF1
aI4
aF0.52000000000000002
aI1
aF1
aa(lp209
I1
aF0.63475336765477219
aI1
aF0.14014089875578295
aI0
aF0.45714115378477349
aI2
aF0.52380952380952384
aI4
aF0.63636363636363635
aI1
aF0.6470588235294118
aI1
aF1
aa(lp210
I1
aF0.57093030347559637
aI1
aF0.16048566794482744
aI1
aF0.71919388575346266
aI2
aF0.5
aI4
aF0.75
aI4
aF1
aI1
aF0.83333333333333337
aa(lp211
I1
aF0.51741997473585932
aI1
aF0.49005067175900052
aI1
aF0.6913178264222567
aI2
aF0.44
aI4
aF1
aI4
aF1
aI1
aF0.75
aa(lp212
I1
aF0.35543478309880083
aI0
aF0.20004239323543349
aI1
aF0.59130965879218933
aI3
aF0.91666666666666663
aI2
aF0.61111111111111116
aI4
aF1
aI1
aF0.68181818181818177
aa(lp213
I1
aF0.50973099811648914
aI1
aF0.14413233614135967
aI1
aF0.72617516691631923
aI2
aF0.51162790697674421
aI4
aF0.625
aI4
aF1
aI1
aF0.83333333333333337
aa(lp214
I1
aF0.32027315202132223
aI1
aF0.099824884098314581
aI1
aF0.47030750901447549
aI2
aF0.6071428571428571
aI3
aF0.61111111111111116
aI4
aF1
aI1
aF0.59999999999999998
aa(lp215
I1
aF0.50655595889330118
aI1
aF0.35525924516108065
aI1
aF0.84970419221526683
aI2
aF0.45833333333333331
aI4
aF1
aI1
aF0.59999999999999998
aI1
aF1
aa(lp216
I1
aF0.71359320037287999
aI1
aF0.21714361233801549
aI0
aF0.28522438047485732
aI2
aF0.47826086956521741
aI4
aF1
aI1
aF1
aI1
aF0.76923076923076927
aa(lp217
I1
aF0.33926918293182706
aI0
aF0.21546296575898671
aI1
aF0.816832565705083
aI3
aF0.9285714285714286
aI2
aF0.6470588235294118
aI4
aF0.6470588235294118
aI1
aF1
aa(lp218
I1
aF0.25351037004930466
aI0
aF0.36409477036347371
aI1
aF0.41545138532809966
aI3
aF0.73333333333333328
aI2
aF0.9375
aI4
aF1
aI1
aF0.59999999999999998
aa(lp219
I1
aF0.3218959180179396
aI0
aF0.35101882663279893
aI1
aF0.77229048140019363
aI3
aF0.73333333333333328
aI2
aF0.94444444444444442
aI4
aF0.91666666666666663
aI1
aF1
aa(lp220
I1
aF0.24517307418671541
aI0
aF0.1600357812935681
aI0
aF0.5689310824728202
aI3
aF1
aI2
aF0.5
aI1
aF0.5
aI1
aF1
aa(lp221
I1
aF0.36867752029990686
aI1
aF0.24920230643714414
aI1
aF0.76742022268522969
aI2
aF0.47826086956521741
aI4
aF1
aI4
aF0.91666666666666663
aI1
aF1
aa(lp222
I1
aF0.24934330066899735
aI0
aF0.18448627334210776
aI1
aF0.72330067802937814
aI3
aF1
aI2
aF0.62857142857142856
aI4
aF1
aI1
aF0.83333333333333337
aa(lp223
I1
aF0.34656714781849518
aI0
aF0.64362296071726555
aI1
aF0.57002264086552701
aI3
aF0.47826086956521741
aI2
aF1
aI4
aF1
aI1
aF0.68181818181818177
aa(lp224
I1
aF0.26604680288096427
aI0
aF0.19107015764093627
aI1
aF0.6738504425269235
aI3
aF1
aI2
aF0.62857142857142856
aI4
aF1
aI1
aF0.75
aa(lp225
I1
aF0.33588432463225115
aI0
aF0.33103423502389784
aI1
aF0.48917855890580098
aI3
aF0.88
aI2
aF0.86956521739130432
aI4
aF1
aI1
aF0.625
aa(lp226
I1
aF0.69068548850907907
aI1
aF0.26273075364809029
aI1
aF0.84348665464720685
aI2
aF0.47826086956521741
aI4
aF1
aI1
aF0.70588235294117652
aI1
aF1
aa(lp227
I1
aF0.207195335062901
aI0
aF0.28662619178511295
aI1
aF0.53882231515264967
aI3
aF0.95652173913043481
aI2
aF0.95652173913043481
aI4
aF1
aI1
aF0.65217391304347827
aa(lp228
I1
aF0.94198900117868012
aI1
aF0.28626931264514266
aI0
aF0.3138379748947232
aI2
aF0.47826086956521741
aI4
aF0.52000000000000002
aI1
aF0
aI1
aF1
aa(lp229
I1
aF0.55371386967495395
aI0
aF0.48589306934901
aI1
aF0.83657139053666496
aI3
aF0.5641025641025641
aI2
aF1
aI1
aF0.52941176470588236
aI1
aF1
aa(lp230
I1
aF0.20337072648937093
aI0
aF0.65816553987414472
aI1
aF0.67305636831356319
aI3
aF0.48888888888888887
aI2
aF1
aI4
aF1
aI1
aF0.75
aa(lp231
I1
aF0.20027696715017218
aI0
aF0.32653154229834624
aI1
aF0.44890320537006034
aI3
aF0.88
aI2
aF0.95238095238095233
aI4
aF1
aI1
aF0.59999999999999998
aa(lp232
I1
aF0.29631003436337122
aI0
aF0.19374522247140569
aI1
aF0.54615433852824302
aI3
aF0.91666666666666663
aI2
aF0.6470588235294118
aI4
aF1
aI1
aF0.65217391304347827
aa(lp233
I1
aF0.34623720727263207
aI0
aF0.34139354329031135
aI1
aF0.71385073865372906
aI3
aF0.84615384615384615
aI2
aF0.90909090909090906
aI4
aF1
aI1
aF0.83333333333333337
aa(lp234
I1
aF0.36487612682390702
aI0
aF0.28453602676965339
aI1
aF0.5873494756899823
aI3
aF0.95652173913043481
aI2
aF0.88
aI4
aF1
aI1
aF0.68181818181818177
aa(lp235
I1
aF0.5616291036408344
aI0
aF0.3772151496579651
aI1
aF0.72873891014655068
aI3
aF0.6470588235294118
aI2
aF0.83333333333333337
aI4
aF1
aI1
aF0.83333333333333337
aa(lp236
I1
aF0.3341569360774358
aI0
aF0.29753655317116801
aI1
aF0.52569319959817862
aI3
aF0.95652173913043481
aI2
aF0.88
aI4
aF1
aI1
aF0.65217391304347827
aa(lp237
I1
aF0.6732636951051516
aI0
aF0.40471073348346887
aI1
aF0.72057281148663521
aI3
aF0.61111111111111116
aI2
aF0.83333333333333337
aI4
aF1
aI1
aF0.83333333333333337
aa(lp238
I1
aF0.5675457703965664
aI1
aF0.21266657043598836
aI1
aF0.77170319087575023
aI2
aF0.47826086956521741
aI4
aF1
aI4
aF0.875
aI1
aF1
aa(lp239
I1
aF0.17922296140130534
aI0
aF0.39926980882645047
aI1
aF0.49332903361241387
aI3
aF0.72413793103448276
aI2
aF0.9375
aI4
aF0.80000000000000004
aI1
aF0.625
aa(lp240
I1
aF0.63378529500695324
aI0
aF0.28510810220304317
aI0
aF0.84026086693881108
aI3
aF0.88
aI2
aF0.7857142857142857
aI1
aF0.7142857142857143
aI1
aF0
aa(lp241
I1
aF0.41425598748284476
aI0
aF0.37639404531111964
aI0
aF0.028323975866952122
aI3
aF0.6875
aI2
aF0.9375
aI1
aF0
aI1
aF0.57692307692307687
aa(lp242
I1
aF0.26097690586586331
aI1
aF0.13736445995119462
aI1
aF0.62807801088668536
aI2
aF0.52380952380952384
aI3
aF1
aI4
aF1
aI1
aF0.7142857142857143
aa(lp243
I0
aF0.48958925453795121
aI1
aF0.19487564796481704
aI1
aF0.26762159566223798
aI3
aF0.62857142857142856
aI1
aF0.52000000000000002
aI2
aF1
aI1
aF0.66666666666666663
aa(lp244
I1
aF0.20500629882553012
aI0
aF0.27336236834910888
aI1
aF0.75859025480952313
aI3
aF0.95454545454545459
aI2
aF0.91666666666666663
aI4
aF0.92307692307692313
aI1
aF0.93333333333333335
aa(lp245
I1
aF0.18448108792431828
aI0
aF0.26328118651615195
aI1
aF0.8149984650508717
aI3
aF0.94999999999999996
aI2
aF0.84615384615384615
aI4
aF0.76470588235294112
aI1
aF1
aa(lp246
I1
aF0.3176421430583668
aI0
aF0.58300420805926734
aI1
aF0.58964951436227786
aI3
aF0.5
aI2
aF1
aI4
aF1
aI1
aF0.68181818181818177
aa(lp247
I1
aF0.1282185517342731
aI0
aF0.17916816549760362
aI1
aF0.63410296747609207
aI3
aF1
aI2
aF0.6875
aI4
aF0.53846153846153844
aI1
aF0.7142857142857143
aa(lp248
I1
aF0.14089157246132045
aI0
aF0.38207118949950791
aI1
aF0.29791920140038497
aI3
aF0.69230769230769229
aI2
aF0.9375
aI3
aF1
aI1
aF0.5357142857142857
aa(lp249
I1
aF0.47522240698996565
aI0
aF0.41812813250669323
aI1
aF0.63723874504655342
aI3
aF0.6470588235294118
aI2
aF1
aI4
aF1
aI1
aF0.7142857142857143
aa(lp250
I1
aF0.19195570497352976
aI0
aF0.50903608551010737
aI1
aF0.94849017792371937
aI3
aF0.57894736842105265
aI2
aF1
aI1
aF0.5
aI1
aF1
aa(lp251
I1
aF0.64844173666156235
aI1
aF0.24173168826302371
aI0
aF0.39945583994634548
aI2
aF0.47826086956521741
aI4
aF1
aI1
aF0.66666666666666663
aI1
aF0.83333333333333337
aa(lp252
I1
aF0.30636258829086738
aI0
aF0.51030025780456434
aI1
aF0.41813171709230801
aI3
aF0.57894736842105265
aI2
aF1
aI4
aF1
aI1
aF0.59999999999999998
aa(lp253
I1
aF0.38248126352495149
aI0
aF0.26449355897784343
aI0
aF0.27441572778031709
aI3
aF0.95238095238095233
aI2
aF0.81481481481481477
aI1
aF0.66666666666666663
aI1
aF0.55000000000000004
aa(lp254
I1
aF0.64172134585746687
aI1
aF0.16460368092292643
aI1
aF0.74449599278302669
aI2
aF0.48888888888888887
aI4
aF0.875
aI4
aF0.83333333333333337
aI1
aF0.93333333333333335
aa(lp255
I1
aF0.65717289350032249
aI1
aF0.3506858815709466
aI1
aF0.74402206829709905
aI2
aF0.45833333333333331
aI4
aF1
aI4
aF0.83333333333333337
aI1
aF0.93333333333333335
aa(lp256
I1
aF0.326962790879465
aI0
aF0.46823488607852781
aI1
aF0.80683605753429966
aI3
aF0.61111111111111116
aI2
aF1
aI4
aF0.84615384615384615
aI1
aF1
aa(lp257
I1
aF0.36423619230404058
aI0
aF0.18590712331325543
aI1
aF0.7242243975208803
aI3
aF1
aI2
aF0.59459459459459463
aI4
aF1
aI1
aF0.83333333333333337
aa(lp258
I1
aF0.26243626582246427
aI0
aF0.3595955352995166
aI1
aF0.80294435571967315
aI3
aF0.75862068965517238
aI2
aF0.94117647058823528
aI4
aF0.9285714285714286
aI1
aF1
aa(lp259
I1
aF0.37138276590272035
aI0
aF0.31459406748121488
aI1
aF0.79637506268074176
aI3
aF0.95652173913043481
aI2
aF0.88
aI4
aF0.91666666666666663
aI1
aF1
aa(lp260
I1
aF0.15944424476689512
aI0
aF0.21731596662462138
aI1
aF0.79118306068069355
aI3
aF0.9285714285714286
aI2
aF0.73333333333333328
aI4
aF0.8125
aI1
aF1
aa(lp261
I1
aF0.36617074366710423
aI0
aF0.37448198723748893
aI1
aF0.80345910105088314
aI3
aF0.6875
aI2
aF0.9375
aI4
aF0.91666666666666663
aI1
aF1
aa(lp262
I1
aF0.3534734026334645
aI0
aF0.17407180712540127
aI1
aF0.58885084489257677
aI3
aF1
aI2
aF0.55000000000000004
aI4
aF1
aI1
aF0.68181818181818177
aa(lp263
I1
aF0.43807943035997365
aI0
aF0.4845973353280586
aI1
aF0.70633326237104666
aI3
aF0.59459459459459463
aI2
aF1
aI4
aF1
aI1
aF0.78947368421052633
aa(lp264
I1
aF0.27046473367260548
aI0
aF0.34920974675691829
aI1
aF0.69372187178208622
aI3
aF0.84615384615384615
aI2
aF0.94999999999999996
aI4
aF1
aI1
aF0.75
aa(lp265
I1
aF0.1441308045276658
aI0
aF0.2769147409132382
aI1
aF0.67873582727678783
aI3
aF0.94736842105263153
aI2
aF0.91666666666666663
aI4
aF0.72727272727272729
aI1
aF0.75
aa(lp266
I1
aF0.20103677754843696
aI0
aF0.5690818908817159
aI1
aF0.78219110463910968
aI3
aF0.53658536585365857
aI2
aF1
aI4
aF0.9285714285714286
aI1
aF1
aa(lp267
I1
aF0.30845633775760262
aI0
aF0.31628759331711287
aI1
aF0.69676511213422543
aI3
aF0.95652173913043481
aI2
aF0.95652173913043481
aI4
aF1
aI1
aF0.75
aa(lp268
I1
aF0.44009784518524264
aI0
aF0.26330297152375726
aI1
aF0.6550713110456613
aI3
aF0.94999999999999996
aI2
aF0.75862068965517238
aI4
aF1
aI1
aF0.7142857142857143
aa(lp269
I1
aF0.50711949037105664
aI0
aF0.36188124841704505
aI1
aF0.87294150765548872
aI3
aF0.6470588235294118
aI2
aF0.88235294117647056
aI1
aF0.59999999999999998
aI1
aF1
aa(lp270
I1
aF0.13332827415792203
aI0
aF0.51422363908542923
aI1
aF0.67657588783612399
aI3
aF0.52941176470588236
aI2
aF1
aI4
aF0.66666666666666663
aI1
aF0.75
aa(lp271
I1
aF0.41753854359496589
aI1
aF0.23660927774260199
aI1
aF0.48642325219575
aI2
aF0.47826086956521741
aI4
aF1
aI4
aF1
aI1
aF0.625
aa(lp272
I1
aF0.19766687157872853
aI1
aF0.091240665360443285
aI1
aF0.44313268145457441
aI2
aF0.68181818181818177
aI3
aF0.625
aI4
aF1
aI1
aF0.59999999999999998
aa(lp273
I1
aF0.36695249023506982
aI0
aF0.70726463180514432
aI1
aF0.50465729475114807
aI3
aF0.46808510638297873
aI2
aF1
aI4
aF1
aI1
aF0.65217391304347827
aa(lp274
I1
aF0.17973865310749615
aI0
aF0.4296899538999106
aI1
aF0.59706848100941301
aI3
aF0.69999999999999996
aI2
aF1
aI4
aF0.8571428571428571
aI1
aF0.68181818181818177
aa(lp275
I1
aF0.17224450680827597
aI0
aF0.41386575396133551
aI1
aF0.58064684957565516
aI3
aF0.69999999999999996
aI2
aF1
aI4
aF0.8571428571428571
aI1
aF0.68181818181818177
aa(lp276
I1
aF0.19083527292273839
aI0
aF0.43483717002109734
aI1
aF0.6585468834620255
aI3
aF0.70967741935483875
aI2
aF1
aI4
aF1
aI1
aF0.7142857142857143
aa(lp277
I1
aF0.6168857543424382
aI0
aF0.31141295489211196
aI1
aF0.67109844033657962
aI3
aF0.88
aI2
aF0.7857142857142857
aI4
aF1
aI1
aF0.75
aa(lp278
I1
aF0.19564853248491831
aI1
aF0.08530861528558098
aI1
aF0.72086264378882203
aI2
aF0.77777777777777779
aI3
aF0.6428571428571429
aI4
aF1
aI1
aF0.83333333333333337
aa(lp279
I1
aF0.44885796540601497
aI0
aF0.56544560220038065
aI1
aF0.77204176999955842
aI3
aF0.5
aI2
aF1
aI4
aF0.90909090909090906
aI1
aF1
aa(lp280
I1
aF0.52024934496589825
aI1
aF0.32609734068785423
aI1
aF0.57849440283336684
aI2
aF0.45833333333333331
aI4
aF1
aI4
aF1
aI1
aF0.68181818181818177
aa(lp281
I1
aF0.64198882526800027
aI0
aF0.24980854913446271
aI1
aF0.79446834024972257
aI3
aF0.84210526315789469
aI2
aF0.6470588235294118
aI4
aF0.8571428571428571
aI1
aF1
aa(lp282
I1
aF0.57078764005441462
aI0
aF0.22708806993656583
aI1
aF0.94381206198930734
aI3
aF0.875
aI2
aF0.61111111111111116
aI1
aF0.63157894736842102
aI1
aF1
aa(lp283
I1
aF0.40230800864751581
aI0
aF0.24696200507400123
aI1
aF0.95996886114962843
aI3
aF0.9375
aI2
aF0.6875
aI1
aF0.54166666666666663
aI1
aF1
aa(lp284
I1
aF0.41986123453103474
aI0
aF0.166215437756568
aI1
aF0.74747907661944946
aI3
aF1
aI2
aF0.5
aI4
aF0.90000000000000002
aI1
aF0.93333333333333335
aa(lp285
I1
aF0.73090084682567469
aI1
aF0.32666124285553455
aI0
aF0.44820884592183441
aI2
aF0.45833333333333331
aI4
aF1
aI1
aF0.84615384615384615
aI1
aF1
aa(lp286
I1
aF0.21215925614865216
aI0
aF0.39618721204787666
aI1
aF0.47048864640816257
aI3
aF0.73333333333333328
aI2
aF0.9375
aI4
aF1
aI1
aF0.59999999999999998
aa(lp287
I1
aF0.19668009845842715
aI0
aF0.21465624050310306
aI1
aF0.65119556510476051
aI3
aF0.9285714285714286
aI2
aF0.6875
aI4
aF1
aI1
aF0.7142857142857143
aa(lp288
I1
aF0.3843249739367709
aI0
aF0.28662273023628804
aI1
aF0.48886197197281078
aI3
aF0.95652173913043481
aI2
aF0.88
aI4
aF1
aI1
aF0.625
aa(lp289
I1
aF0.40755695500917999
aI0
aF0.47896160768485541
aI1
aF0.77567246374788501
aI3
aF0.61111111111111116
aI2
aF1
aI4
aF0.91666666666666663
aI1
aF1
aa(lp290
I1
aF0.47362003818674081
aI0
aF0.47089783428799492
aI1
aF0.83274990992077558
aI3
aF0.59459459459459463
aI2
aF1
aI4
aF0.52631578947368418
aI1
aF1
aa(lp291
I1
aF0.56870245102939099
aI1
aF0.18708352540933326
aI1
aF0.89764947892898139
aI2
aF0.47826086956521741
aI4
aF1
aI1
aF0.63157894736842102
aI1
aF1
aa(lp292
I1
aF0.46698062681671249
aI0
aF0.27678663667964465
aI1
aF0.69951364325193488
aI3
aF0.95454545454545459
aI2
aF0.81481481481481477
aI4
aF1
aI1
aF0.75
aa(lp293
I1
aF0.24866575334215402
aI0
aF0.56606584901114021
aI1
aF0.77446305477468858
aI3
aF0.53658536585365857
aI2
aF1
aI4
aF0.9285714285714286
aI1
aF1
aa(lp294
I1
aF0.72803372687143231
aI1
aF0.30797952866372258
aI0
aF0.050675755664156386
aI2
aF0.47826086956521741
aI4
aF1
aI1
aF0
aI1
aF0.83333333333333337
aa(lp295
I1
aF0.16079159958928946
aI1
aF0.066203762404330013
aI1
aF0.40029217495879943
aI2
aF0.83333333333333337
aI3
aF0.5625
aI3
aF0.5
aI1
aF0.57692307692307687
aa(lp296
I1
aF0.56854734343815572
aI0
aF0.32722254969950126
aI1
aF0.80512144689966769
aI3
aF0.81481481481481477
aI2
aF0.80000000000000004
aI4
aF0.875
aI1
aF1
aa(lp297
I1
aF0.31066056222396177
aI1
aF0.06862282455548474
aI1
aF0.9173010860769294
aI2
aF0.83333333333333337
aI3
aF0.58823529411764708
aI4
aF0.52000000000000002
aI1
aF1
aa(lp298
I1
aF0.5235428782600452
aI0
aF0.32531582342386789
aI1
aF0.87689666252404297
aI3
aF0.81481481481481477
aI2
aF0.83333333333333337
aI1
aF0.59999999999999998
aI1
aF1
aa(lp299
I1
aF0.29752643692569236
aI0
aF0.47232357295920313
aI0
aF0.59271770130453105
aI3
aF0.6470588235294118
aI2
aF1
aI1
aF0.51851851851851849
aI1
aF1
aa(lp300
I1
aF0.26313329038523636
aI0
aF0.43681571189896862
aI0
aF0.42108454894085634
aI3
aF0.70967741935483875
aI2
aF1
aI4
aF0.52380952380952384
aI1
aF0.7142857142857143
aa(lp301
I1
aF0.1752953159814965
aI0
aF0.54069199714544014
aI1
aF0.74178333383204542
aI3
aF0.52500000000000002
aI2
aF1
aI4
aF0.8571428571428571
aI1
aF0.93333333333333335
aa(lp302
I1
aF0.5848794640349767
aI1
aF0.14345786681686867
aI1
aF0.94304535564904657
aI2
aF0.51162790697674421
aI4
aF0.66666666666666663
aI1
aF0.63157894736842102
aI1
aF1
aa(lp303
I1
aF0.43776557268101524
aI0
aF0.21531774486711908
aI1
aF0.65717612968664141
aI3
aF0.9285714285714286
aI2
aF0.62857142857142856
aI4
aF1
aI1
aF0.7142857142857143
aa(lp304
I1
aF0.19606864644558175
aI0
aF0.88775322481229124
aI1
aF0.4852045212747359
aI2
aF0.47826086956521741
aI1
aF0
aI4
aF1
aI1
aF0.625
aa(lp305
I1
aF0.44621112640273564
aI0
aF0.22103656390646698
aI1
aF0.7840073372384877
aI3
aF0.9285714285714286
aI2
aF0.62857142857142856
aI4
aF0.90909090909090906
aI1
aF1
aa(lp306
I1
aF0.70274203056135187
aI1
aF0.12176702752380741
aI1
aF0.96386795974989359
aI2
aF0.5641025641025641
aI4
aF0.53333333333333333
aI1
aF0.72222222222222221
aI1
aF1
aa(lp307
I1
aF0.2196039088701065
aI0
aF0.21160241085015263
aI1
aF0.47450197206134459
aI3
aF0.9285714285714286
aI2
aF0.6875
aI4
aF1
aI1
aF0.59999999999999998
aa(lp308
I1
aF0.42619765414882649
aI0
aF0.49702776000465276
aI1
aF0.56750986097617329
aI3
aF0.57894736842105265
aI2
aF1
aI4
aF1
aI1
aF0.68181818181818177
aa(lp309
I1
aF0.13232561779918939
aI0
aF0.31214988093003049
aI1
aF0.36704001536108311
aI3
aF0.94444444444444442
aI2
aF0.95652173913043481
aI3
aF0.7142857142857143
aI1
aF0.57692307692307687
aa(lp310
I1
aF0.385723122722335
aI0
aF0.35041083847964605
aI1
aF0.50926580557878209
aI3
aF0.73333333333333328
aI2
aF0.94444444444444442
aI4
aF1
aI1
aF0.65217391304347827
aa(lp311
I1
aF0.28117323233436409
aI0
aF0.56698053031649098
aI1
aF0.38817386343954963
aI3
aF0.53658536585365857
aI2
aF1
aI4
aF1
aI1
aF0.57692307692307687
aa(lp312
I1
aF0.20248623137207589
aI0
aF0.28288741433628239
aI1
aF0.61760026347693697
aI3
aF0.95652173913043481
aI2
aF0.95652173913043481
aI4
aF1
aI1
aF0.7142857142857143
aa(lp313
I1
aF0.49353950760616172
aI1
aF0.39401967443545305
aI1
aF0.81664357167639789
aI2
aF0.45833333333333331
aI4
aF1
aI4
aF0.59999999999999998
aI1
aF1
aa(lp314
I1
aF0.57966490276278448
aI0
aF0.40353887043933512
aI1
aF0.87974220990176233
aI3
aF0.62857142857142856
aI2
aF0.88235294117647056
aI1
aF0.63157894736842102
aI1
aF1
aa(lp315
I1
aF0.29965761831777493
aI0
aF0.30160137873094783
aI1
aF0.93874262042080014
aI3
aF0.95652173913043481
aI2
aF0.95652173913043481
aI4
aF0.52000000000000002
aI1
aF1
aa(lp316
I1
aF0.37204599725512866
aI0
aF0.2444142950604834
aI0
aF0.94565183242677431
aI3
aF0.93333333333333335
aI2
aF0.66666666666666663
aI1
aF0.57692307692307687
aI1
aF0
aa(lp317
I1
aF0.22018734520846661
aI0
aF0.45434674547166842
aI1
aF0.93078528093826174
aI3
aF0.6875
aI2
aF1
aI4
aF0.52000000000000002
aI1
aF1
aa(lp318
I1
aF0.28684762188068091
aI0
aF0.56964459349854302
aI1
aF0.79480658045493158
aI3
aF0.53658536585365857
aI2
aF1
aI4
aF0.9285714285714286
aI1
aF1
aa(lp319
I1
aF0.56274458787017045
aI1
aF0.16575094265449841
aI1
aF0.80336246624694752
aI2
aF0.48888888888888887
aI4
aF0.8571428571428571
aI4
aF0.875
aI1
aF1
aa(lp320
I1
aF0.19762406563796353
aI0
aF0.44875335564267049
aI1
aF0.72231268404948445
aI3
aF0.6875
aI2
aF1
aI4
aF1
aI1
aF0.83333333333333337
aa(lp321
I1
aF0.14453696842560915
aI0
aF0.54869026872583526
aI1
aF0.75558810266735998
aI3
aF0.5
aI2
aF1
aI4
aF0.75
aI1
aF0.93333333333333335
aa(lp322
I1
aF0.28257717288050577
aI0
aF0.47656963601899549
aI1
aF0.47699743818239748
aI3
aF0.6470588235294118
aI2
aF1
aI4
aF1
aI1
aF0.59999999999999998
aa(lp323
I1
aF0.31435440652762203
aI0
aF0.43180340136989104
aI1
aF0.63400700434657586
aI3
aF0.70967741935483875
aI2
aF1
aI4
aF1
aI1
aF0.7142857142857143
aa(lp324
I1
aF0.29791290556355499
aI0
aF0.4108712673235726
aI1
aF0.87370467588702516
aI3
aF0.70967741935483875
aI2
aF1
aI4
aF0.52000000000000002
aI1
aF1
aa(lp325
I1
aF0.1132777839914475
aI0
aF0.2541242224266429
aI1
aF0.66577822286013377
aI3
aF0.93333333333333335
aI2
aF0.91304347826086951
aI3
aF0.46666666666666667
aI1
aF0.7142857142857143
aa(lp326
I1
aF0.26426886711946718
aI1
aF0.058824002468481074
aI0
aF0.37567462009442965
aI2
aF0.75
aI3
aF0.52631578947368418
aI1
aF0.52631578947368418
aI1
aF0.55555555555555558
aa(lp327
I1
aF0.28006910407896235
aI0
aF0.38742274752885042
aI1
aF0.36883793686201072
aI3
aF0.73333333333333328
aI2
aF0.9375
aI4
aF1
aI1
aF0.57692307692307687
aa(lp328
I1
aF0.45421173289347594
aI0
aF0.34299037899503049
aI1
aF0.76105563531751097
aI3
aF0.81481481481481477
aI2
aF0.90909090909090906
aI4
aF0.90000000000000002
aI1
aF0.93333333333333335
aa(lp329
I1
aF0.32259272070051703
aI0
aF0.32908611774132557
aI1
aF0.79840738562078206
aI3
aF0.88
aI2
aF0.86956521739130432
aI4
aF0.91666666666666663
aI1
aF1
aa(lp330
I1
aF0.15304334800138797
aI0
aF0.56751429016795096
aI1
aF0.71592402637968122
aI3
aF0.51282051282051277
aI2
aF1
aI4
aF0.83333333333333337
aI1
aF0.83333333333333337
aa(lp331
I1
aF0.39524821599037629
aI0
aF0.4379641365834277
aI1
aF0.69448978927014149
aI3
aF0.6470588235294118
aI2
aF1
aI4
aF1
aI1
aF0.75
aa(lp332
I1
aF0.23369892916926749
aI0
aF0.26406037175638242
aI1
aF0.79583465220125338
aI3
aF0.94999999999999996
aI2
aF0.84615384615384615
aI4
aF0.9285714285714286
aI1
aF1
aa(lp333
I1
aF0.25744988162138549
aI0
aF0.36603085907469501
aI1
aF0.60159377710346262
aI3
aF0.73333333333333328
aI2
aF0.9375
aI4
aF1
aI1
aF0.68181818181818177
aa(lp334
I1
aF0.18515400518085789
aI0
aF0.36289497058818809
aI1
aF0.7869183297812079
aI3
aF0.73333333333333328
aI2
aF0.9375
aI4
aF0.9285714285714286
aI1
aF1
aa(lp335
I1
aF0.52760828860537323
aI1
aF0.29735108932864074
aI1
aF0.89099357977823079
aI2
aF0.47826086956521741
aI4
aF1
aI1
aF0.59999999999999998
aI1
aF1
aa(lp336
I1
aF0.25115697713353291
aI0
aF0.26723968509515439
aI1
aF0.61679621653515981
aI3
aF0.95454545454545459
aI2
aF0.91666666666666663
aI4
aF1
aI1
aF0.7142857142857143
aa(lp337
I1
aF0.45719152565311538
aI0
aF0.34290288226727816
aI1
aF0.62626201059605879
aI3
aF0.81481481481481477
aI2
aF0.90909090909090906
aI4
aF1
aI1
aF0.7142857142857143
aa(lp338
I1
aF0.39630635458677799
aI0
aF0.33925164268687791
aI1
aF0.67296578516278671
aI3
aF0.84615384615384615
aI2
aF0.90909090909090906
aI4
aF1
aI1
aF0.75
aa(lp339
I1
aF0.27279711298449694
aI0
aF0.49548481583445958
aI1
aF0.81752174063038197
aI3
aF0.62857142857142856
aI2
aF1
aI4
aF0.65000000000000002
aI1
aF1
aa(lp340
I1
aF0.2786204705416816
aI0
aF0.38013447035973924
aI1
aF0.77550848125890182
aI3
aF0.73333333333333328
aI2
aF0.9375
aI4
aF0.9285714285714286
aI1
aF1
aa(lp341
I1
aF0.20629813930703944
aI0
aF0.25158113639926105
aI1
aF0.7071941481474634
aI3
aF0.94444444444444442
aI2
aF0.7857142857142857
aI4
aF1
aI1
aF0.78947368421052633
aa(lp342
I1
aF0.48857991917751686
aI0
aF0.32371284080818574
aI1
aF0.78081261764179177
aI3
aF0.81481481481481477
aI2
aF0.86956521739130432
aI4
aF0.90000000000000002
aI1
aF1
aa(lp343
I1
aF0.2595078153130892
aI0
aF0.40529736083492307
aI1
aF0.40008640626650116
aI3
aF0.70967741935483875
aI2
aF1
aI4
aF1
aI1
aF0.57692307692307687
aa(lp344
I1
aF0.48143846738715634
aI0
aF0.22531564890886813
aI1
aF0.77284480612562556
aI3
aF0.93333333333333335
aI2
aF0.6470588235294118
aI4
aF0.90909090909090906
aI1
aF1
aa(lp345
I1
aF0.22243699101942116
aI0
aF0.33406624790657835
aI1
aF0.86330574543124361
aI3
aF0.88
aI2
aF0.95238095238095233
aI4
aF0.52000000000000002
aI1
aF1
aa(lp346
I1
aF0.32335523433251123
aI0
aF0.27738308395366051
aI1
aF0.71897955833073224
aI3
aF0.95454545454545459
aI2
aF0.84615384615384615
aI4
aF1
aI1
aF0.83333333333333337
aa(lp347
I1
aF0.5509950095898597
aI0
aF0.44629965353186862
aI1
aF0.73010394403702372
aI3
aF0.59459459459459463
aI2
aF1
aI4
aF1
aI1
aF0.88235294117647056
aa(lp348
I1
aF0.19838330970504181
aI1
aF0.11665454421972377
aI1
aF0.59553617366179545
aI2
aF0.5641025641025641
aI3
aF1
aI4
aF1
aI1
aF0.68181818181818177
aa(lp349
I1
aF0.74307881216434002
aI1
aF0.33327668800069377
aI0
aF0.31241313458173448
aI2
aF0.45833333333333331
aI4
aF0.90909090909090906
aI1
aF1
aI1
aF0.875
aa(lp350
I1
aF0.47726889065622424
aI0
aF0.36453808006779986
aI1
aF0.62949077633375428
aI3
aF0.66666666666666663
aI2
aF0.9375
aI4
aF1
aI1
aF0.7142857142857143
aa(lp351
I1
aF0.26053026355284115
aI0
aF0.45024962816579195
aI1
aF0.80776026046542693
aI3
aF0.6875
aI2
aF1
aI4
aF0.8666666666666667
aI1
aF1
aa(lp352
I1
aF0.36689353466406727
aI1
aF0.091414815965191076
aI1
aF0.63829353582436865
aI2
aF0.68181818181818177
aI3
aF0.57692307692307687
aI4
aF1
aI1
aF0.7142857142857143
aa(lp353
I1
aF0.35884011323373699
aI1
aF0.28808426715785618
aI0
aF0.27078514904532613
aI2
aF0.47826086956521741
aI4
aF1
aI1
aF0.66666666666666663
aI1
aF0.55000000000000004
aa(lp354
I1
aF0.22610209986825347
aI0
aF0.6033292382996307
aI1
aF0.8968607845218135
aI3
aF0.5
aI2
aF1
aI4
aF0.52000000000000002
aI1
aF1
aa(lp355
I1
aF0.36321548898322331
aI0
aF0.4182161834987338
aI1
aF0.86436358669109992
aI3
aF0.66666666666666663
aI2
aF1
aI1
aF0.52173913043478259
aI1
aF1
aa(lp356
I1
aF0.51237418760447861
aI0
aF0.29223109562740712
aI1
aF0.96329407903351205
aI3
aF0.91666666666666663
aI2
aF0.81481481481481477
aI1
aF0.61904761904761907
aI1
aF1
aa(lp357
I1
aF0.15053104013628527
aI0
aF0.5599694219722734
aI1
aF0.68417850890431209
aI3
aF0.51282051282051277
aI2
aF1
aI4
aF0.80000000000000004
aI1
aF0.75
aa(lp358
I1
aF0.28619743810070652
aI0
aF0.38315048991370904
aI1
aF0.48293907911943013
aI3
aF0.73333333333333328
aI2
aF0.9375
aI4
aF1
aI1
aF0.59999999999999998
aa(lp359
I1
aF0.71660748952796338
aI1
aF0.27416929174168503
aI0
aF0.49394432326913751
aI2
aF0.47826086956521741
aI4
aF1
aI1
aF0.8125
aI1
aF1
aa(lp360
I1
aF0.7862928863242995
aI1
aF0.52811902878414396
aI0
aF0.69773526882262138
aI2
aF0.43137254901960786
aI4
aF0.88888888888888884
aI1
aF1
aI1
aF0
aa(lp361
I1
aF0.25125066629884407
aI0
aF0.47982428303010938
aI1
aF0.51011332748542437
aI3
aF0.6470588235294118
aI2
aF1
aI4
aF1
aI1
aF0.65217391304347827
aa(lp362
I1
aF0.52810831679252235
aI0
aF0.29828485000568727
aI1
aF0.90357616551596753
aI3
aF0.91666666666666663
aI2
aF0.81481481481481477
aI1
aF0.59999999999999998
aI1
aF1
aa(lp363
I1
aF0.31988155845937705
aI1
aF0.053783550258881596
aI1
aF0.70029140272460588
aI2
aF0.5
aI2
aF0.47619047619047616
aI4
aF1
aI1
aF0.75
aa(lp364
I1
aF0.28201872397893035
aI0
aF0.32639961068010892
aI1
aF0.41868433396915727
aI3
aF0.88
aI2
aF0.95238095238095233
aI4
aF1
aI1
aF0.59999999999999998
aa(lp365
I1
aF0.10119386370455885
aI0
aF0.5551476478908407
aI1
aF0.78265722217027067
aI2
aF0.56000000000000005
aI2
aF1
aI4
aF0.46875
aI1
aF1
aa(lp366
I1
aF0.34839234866973856
aI1
aF0.22875804946899148
aI1
aF0.82258696333852432
aI2
aF0.47826086956521741
aI4
aF1
aI4
aF0.55000000000000004
aI1
aF1
aa(lp367
I1
aF0.44694652372046095
aI0
aF0.51902759419746947
aI0
aF0.99133167572770309
aI3
aF0.52380952380952384
aI2
aF1
aI1
aF0.59999999999999998
aI1
aF0
aa(lp368
I1
aF0.24548794156304343
aI0
aF0.33983098138715706
aI1
aF0.42054321808394302
aI3
aF0.88
aI2
aF0.95238095238095233
aI4
aF1
aI1
aF0.59999999999999998
aa(lp369
I1
aF0.42183674482207589
aI0
aF0.32167683022903182
aI0
aF0.21134620104378798
aI3
aF0.84615384615384615
aI2
aF0.86956521739130432
aI4
aF1
aI1
aF0.65217391304347827
aa(lp370
I1
aF0.41424257289618849
aI0
aF0.26053371977423101
aI1
aF0.79409780858612511
aI3
aF0.94444444444444442
aI2
aF0.73333333333333328
aI4
aF0.91666666666666663
aI1
aF1
aa(lp371
I1
aF0.26206057845233621
aI0
aF0.37656601445661364
aI1
aF0.74535252529485585
aI3
aF0.73333333333333328
aI2
aF0.9375
aI4
aF0.92307692307692313
aI1
aF0.93333333333333335
aa(lp372
I1
aF0.70547976490223241
aI0
aF0.51184549274988034
aI0
aF0.41597947352325582
aI3
aF0.47826086956521741
aI2
aF0.88888888888888884
aI1
aF0.7142857142857143
aI1
aF1
aa(lp373
I1
aF0.27439061520416019
aI0
aF0.32111921633177742
aI1
aF0.64024514437507474
aI3
aF0.88
aI2
aF0.95238095238095233
aI4
aF1
aI1
aF0.7142857142857143
aa(lp374
I1
aF0.28704268892982809
aI0
aF0.27838293840771011
aI1
aF0.58265657847907981
aI3
aF0.95454545454545459
aI2
aF0.91666666666666663
aI4
aF1
aI1
aF0.68181818181818177
aa(lp375
I1
aF0.5157795231079112
aI1
aF0.077696115088373596
aI1
aF0.92904188358804041
aI2
aF0.75
aI3
aF0.51428571428571423
aI1
aF0.59999999999999998
aI1
aF1
aa(lp376
I1
aF0.36788681174792803
aI0
aF0.27442825513099334
aI1
aF0.52652330112273527
aI3
aF0.95454545454545459
aI2
aF0.84615384615384615
aI4
aF1
aI1
aF0.65217391304347827
aa(lp377
I1
aF0.18149852812279554
aI0
aF0.37261150107713392
aI1
aF0.6839742697993999
aI3
aF0.72413793103448276
aI2
aF0.9375
aI4
aF0.88888888888888884
aI1
aF0.75
aa(lp378
I1
aF0.30653517012163867
aI0
aF0.28136056296403233
aI1
aF0.64465215977627466
aI3
aF0.95652173913043481
aI2
aF0.95652173913043481
aI4
aF1
aI1
aF0.7142857142857143
aa(lp379
I1
aF0.20996100652817107
aI0
aF0.28016152562074392
aI1
aF0.69248688267204883
aI3
aF0.95652173913043481
aI2
aF0.95652173913043481
aI4
aF1
aI1
aF0.75
aa(lp380
I1
aF0.51085333406167455
aI0
aF0.28591544722602569
aI1
aF0.73423920654566432
aI3
aF0.91666666666666663
aI2
aF0.81481481481481477
aI4
aF1
aI1
aF0.88235294117647056
aa(lp381
I1
aF0.19566879716961849
aI0
aF0.90765632911806926
aI1
aF0.96879490607126784
aI2
aF0.47826086956521741
aI1
aF0
aI1
aF0.5
aI1
aF1
aa(lp382
I1
aF0.46718378354833912
aI0
aF0.39907443407917842
aI1
aF0.66459476875639933
aI3
aF0.66666666666666663
aI2
aF0.9375
aI4
aF1
aI1
aF0.7142857142857143
aa(lp383
I1
aF0.40940457940191377
aI1
aF0.25672292694362253
aI1
aF0.69945502779828483
aI2
aF0.47826086956521741
aI4
aF1
aI4
aF1
aI1
aF0.75
aa(lp384
I1
aF0.44464580498223361
aI0
aF0.46993253074977781
aI0
aF0.56641635903573928
aI3
aF0.59459459459459463
aI2
aF1
aI1
aF0.56521739130434778
aI1
aF1
aa(lp385
I1
aF0.37145072935962142
aI0
aF0.30099002482508797
aI1
aF0.58548246599691744
aI3
aF0.95652173913043481
aI2
aF0.88
aI4
aF1
aI1
aF0.68181818181818177
aa(lp386
I1
aF0.47178498491016974
aI0
aF0.41300036757057934
aI1
aF0.67866545238322451
aI3
aF0.6470588235294118
aI2
aF1
aI4
aF1
aI1
aF0.75
aa(lp387
I1
aF0.14626566240735839
aI1
aF0.14423052741416298
aI1
aF0.67000516641624053
aI2
aF0.51162790697674421
aI3
aF1
aI4
aF0.80000000000000004
aI1
aF0.75
aa(lp388
I1
aF0.20188085520071442
aI0
aF0.42059574984672976
aI1
aF0.68327858900932237
aI3
aF0.70967741935483875
aI2
aF1
aI4
aF1
aI1
aF0.75
aa(lp389
I1
aF0.2073584870442724
aI0
aF0.26520213806308912
aI1
aF0.88238514147182634
aI3
aF0.95238095238095233
aI2
aF0.88
aI4
aF0.52000000000000002
aI1
aF1
aa(lp390
I1
aF0.18891856953595232
aI0
aF0.43663398530239095
aI1
aF0.6366512671411535
aI3
aF0.70967741935483875
aI2
aF1
aI4
aF1
aI1
aF0.7142857142857143
aa(lp391
I1
aF0.77291376389289512
aI0
aF0.27148436190313163
aI0
aF0.17113356455132578
aI3
aF0.875
aI2
aF0.61111111111111116
aI1
aF0
aI1
aF1
aa(lp392
I1
aF0.2495789671440245
aI0
aF0.27584980533254599
aI1
aF0.44072142646850798
aI3
aF0.95454545454545459
aI2
aF0.91666666666666663
aI4
aF1
aI1
aF0.59999999999999998
aa(lp393
I1
aF0.19473920709596715
aI0
aF0.45272203972810321
aI1
aF0.45568265688111897
aI3
aF0.6875
aI2
aF1
aI4
aF1
aI1
aF0.59999999999999998
aa(lp394
I1
aF0.60139893808608424
aI1
aF0.19213646880636337
aI0
aF0.028707600793844268
aI2
aF0.47826086956521741
aI4
aF1
aI1
aF0
aI1
aF0.68181818181818177
aa(lp395
I1
aF0.22025621378481819
aI0
aF0.36087284162130184
aI0
aF0.45448400531953503
aI3
aF0.73333333333333328
aI2
aF0.9375
aI4
aF0.52173913043478259
aI1
aF0.80000000000000004
aa(lp396
I1
aF0.19384328617895075
aI0
aF0.25252247088409263
aI1
aF0.90587715958088333
aI3
aF0.94444444444444442
aI2
aF0.7857142857142857
aI4
aF0.52000000000000002
aI1
aF1
aa(lp397
I1
aF0.21044772095452602
aI0
aF0.26235514321809883
aI1
aF0.92228484098936303
aI3
aF0.94736842105263153
aI2
aF0.81481481481481477
aI4
aF0.52000000000000002
aI1
aF1
aa(lp398
I1
aF0.28980322101666167
aI0
aF0.87723397525225688
aI1
aF0.79795259065318525
aI2
aF0.47826086956521741
aI1
aF0
aI4
aF0.9285714285714286
aI1
aF1
aa(lp399
I1
aF0.20717520885010932
aI0
aF0.42984857014713784
aI1
aF0.9114379339389882
aI3
aF0.70967741935483875
aI2
aF1
aI4
aF0.52000000000000002
aI1
aF1
aa(lp400
I1
aF0.31693087194374336
aI0
aF0.47484337106987118
aI1
aF0.78176839819421107
aI3
aF0.6470588235294118
aI2
aF1
aI4
aF0.9285714285714286
aI1
aF1
aa(lp401
I1
aF0.43799843179722686
aI0
aF0.48860285476925303
aI1
aF0.80754033177970586
aI3
aF0.57894736842105265
aI2
aF1
aI4
aF0.83333333333333337
aI1
aF1
aa.