(lp1
(lp2
(lp3
F-10.536950050456365
aF6.2405236987434334
aF-7.7732235306481643
aF1.2301624863251568
aF1.303084638089083
aa(lp4
F-6.4792601274036787
aF-10.257329256248886
aF3.1532956782489916
aF-10.603627912503939
aF2.3888971044358209
aa(lp5
F4.1017342869436488
aF-0.31327798200119722
aF1.8752748785652156
aF7.9407576416819152
aF-0.98994559954377126
aaa(lp6
(lp7
F-5.0699829256339655
aF-3.9451356780771905
aF10.93583745428424
aF-4.3388522665041975
aa(lp8
F-4.7616137369667824
aF8.6585174456159493
aF-3.7446112032273842
aF-8.7905531449475998
aa(lp9
F3.2978433937192584
aF-7.3377472431893063
aF3.3389201648710394
aF-1.9587185241127807
aa(lp10
F-8.8333495485028219
aF1.3376568207793169
aF2.276168686440748
aF7.91161247633881
aa(lp11
F2.1057133069284117
aF-1.4396622612952608
aF-4.6471301418585984
aF-1.7278636019770575
aa(lp12
F0.44037614149191295
aF-0.80268995445534985
aF-5.6704215405054637
aF-1.2234527015734629
aaa.