(lp1
(lp2
(lp3
F-2.7324335726914919
aF1.7647830185165636
aF-2.2048474575439587
aF-0.70059106650734893
aF-0.0051395109882993277
aa(lp4
F-3.2804273041873664
aF-3.3661622129045834
aF0.73261539803012254
aF-2.2070891093895906
aF0.80831723762006336
aa(lp5
F1.5576792445813685
aF0.24339530240781737
aF0.16773263121197679
aF0.18728189627408165
aF0.32657412320000045
aaa(lp6
(lp7
F-3.0369058714201485
aF-0.63776076214330257
aF3.6293034317250465
aF-0.51948107827027157
aa(lp8
F-2.6186121538714553
aF2.6321058243122373
aF0.021544438286994226
aF-1.5854861518325889
aa(lp9
F0.56597235525433942
aF-2.3567493762594824
aF1.2859703523304444
aF-0.76115458313476836
aa(lp10
F-1.2394930497412153
aF1.0165457095659267
aF1.9127787355388073
aF-0.25874527881281262
aa(lp11
F0.14572716420613713
aF-1.0771872283893544
aF-1.3254901249150945
aF0.039510030654366854
aa(lp12
F0.72176677748671247
aF-0.75492596863315276
aF-2.5735999283266127
aF0.21903877464762866
aaa.