(lp1
(lp2
(lp3
F-0.42073030245873544
aF0.35669597239474254
aF-0.17824176021151308
aF-0.97037505121911505
aF0.24347477484503771
aa(lp4
F-0.3772835457123499
aF-0.5922665205644374
aF-0.10860903577277516
aF-0.48529217201939662
aF0.51592886272542127
aa(lp5
F0.1435017196506842
aF0.36059762036798626
aF-0.82075624210289133
aF-1.0749986156353515
aF0.33633532154124773
aaa(lp6
(lp7
F-0.47248420981078898
aF-0.52397461015756752
aF0.63911308860616112
aF-0.37540448275142307
aa(lp8
F-0.13837344295850787
aF-0.3101334781550516
aF-0.39939204699045155
aF-1.1890023455915635
aa(lp9
F0.14937114630541679
aF-0.81156236147621974
aF0.70161738302952559
aF-0.98296765749672033
aa(lp10
F0.1790488464682321
aF0.83549140061621818
aF0.39546324533656896
aF-0.12351459936289719
aa(lp11
F-1.2754907365968311
aF-0.43120677857108275
aF0.059131048761994577
aF-0.079955385937772697
aa(lp12
F-0.5679732611313727
aF-0.24724779897099652
aF-1.1158481929481112
aF0.094308300910950674
aaa.