(lp1
(lp2
I1
aF0.66826996224286805
aI0
aF0.30971722036050475
aI1
aF0.78357104815066925
aI3
aF0.88
aI2
aF0.75862068965517238
aI4
aF0.83333333333333337
aI1
aF1
aa(lp3
I1
aF0.67220660025745627
aI1
aF0.628981502388268
aI1
aF0.78307439650438437
aI2
aF0.41509433962264153
aI4
aF1
aI4
aF0.83333333333333337
aI1
aF1
aa(lp4
I1
aF0.12164545291653595
aI0
aF0.54016389774731621
aI1
aF0.73904122959624863
aI2
aF0.5
aI2
aF1
aI4
aF0.61111111111111116
aI1
aF0.88235294117647056
aa(lp5
I1
aF0.69651462620359006
aI0
aF0.17143522332898786
aI1
aF0.83307532931566441
aI3
aF0.88888888888888884
aI2
aF0.48888888888888887
aI1
aF0.6428571428571429
aI1
aF1
aa(lp6
I1
aF0.38222128892573826
aI0
aF0.34826372577278719
aI1
aF0.52369038296965642
aI3
aF0.7857142857142857
aI2
aF0.94999999999999996
aI4
aF1
aI1
aF0.65217391304347827
aa(lp7
I1
aF0.43466012479081728
aI0
aF0.36471625780405603
aI1
aF0.82136921571316179
aI3
aF0.66666666666666663
aI2
aF0.9375
aI4
aF0.52631578947368418
aI1
aF1
aa(lp8
I1
aF0.20704396281744575
aI0
aF0.8514349790625092
aI1
aF0.76952173830735393
aI2
aF0.47826086956521741
aI1
aF0
aI4
aF0.9285714285714286
aI1
aF1
aa(lp9
I1
aF0.30255249397245043
aI0
aF0.32414624771859601
aI1
aF0.82121583699512812
aI3
aF0.88
aI2
aF0.95238095238095233
aI4
aF0.59090909090909094
aI1
aF1
aa(lp10
I1
aF0.51146825374683624
aI1
aF0.29032122481250788
aI1
aF0.62024549623901937
aI2
aF0.47826086956521741
aI4
aF1
aI4
aF1
aI1
aF0.7142857142857143
aa(lp11
I1
aF0.42373009484701241
aI0
aF0.29782674632273687
aI1
aF0.91022799702696278
aI3
aF0.95652173913043481
aI2
aF0.84615384615384615
aI1
aF0.54545454545454541
aI1
aF1
aa.