(lp1
(lp2
(lp3
F-22.227669764599458
aF10.65100973937335
aF-12.797013253020499
aF2.354574316805409
aF3.3286077772882576
aa(lp4
F-10.574716361356984
aF-12.764177677220307
aF9.3092494044812675
aF-19.925654834679719
aF3.3843116231523975
aa(lp5
F7.9340293632604393
aF-3.3746665595258154
aF2.5145871733509231
aF15.466798738446801
aF-1.1737593000367026
aaa(lp6
(lp7
F-5.0451002277137826
aF-5.6019586817720652
aF17.598709208321846
aF-13.809505985135182
aa(lp8
F-4.7881678344603893
aF14.564634626748811
aF-9.1736066403330856
aF-13.864728761394918
aa(lp9
F4.4840647386775672
aF-11.169725231339996
aF6.2800397567973505
aF-2.3135591883359905
aa(lp10
F-13.197452431046832
aF3.7665337801571712
aF0.91138602747891995
aF13.589684115332171
aa(lp11
F3.3828833172563577
aF-0.94581051757819434
aF-7.394395227969766
aF-2.6638933205681794
aa(lp12
F1.5820641800287125
aF1.5958111259648804
aF-7.4071340635715019
aF-4.5690945213534411
aaa.