(lp1
(lp2
I1
aF0.66826996224286805
aI0
aF0.30971722036050475
aI1
aF0.78357104815066925
aI3
aF0.88
aI2
aF0.75862068965517238
aI4
aF0.83333333333333337
aI1
aF1
aa(lp3
I1
aF0.67220660025745627
aI1
aF0.628981502388268
aI1
aF0.78307439650438437
aI2
aF0.41509433962264153
aI4
aF1
aI4
aF0.83333333333333337
aI1
aF1
aa(lp4
I1
aF0.12164545291653595
aI0
aF0.54016389774731621
aI1
aF0.73904122959624863
aI2
aF0.5
aI2
aF1
aI4
aF0.61111111111111116
aI1
aF0.88235294117647056
aa(lp5
I1
aF0.69651462620359006
aI0
aF0.17143522332898786
aI1
aF0.83307532931566441
aI3
aF0.88888888888888884
aI2
aF0.48888888888888887
aI1
aF0.6428571428571429
aI1
aF1
aa(lp6
I1
aF0.38222128892573826
aI0
aF0.34826372577278719
aI1
aF0.52369038296965642
aI3
aF0.7857142857142857
aI2
aF0.94999999999999996
aI4
aF1
aI1
aF0.65217391304347827
aa(lp7
I1
aF0.43466012479081728
aI0
aF0.36471625780405603
aI1
aF0.82136921571316179
aI3
aF0.66666666666666663
aI2
aF0.9375
aI4
aF0.52631578947368418
aI1
aF1
aa(lp8
I1
aF0.20704396281744575
aI0
aF0.8514349790625092
aI1
aF0.76952173830735393
aI2
aF0.47826086956521741
aI1
aF0
aI4
aF0.9285714285714286
aI1
aF1
aa(lp9
I1
aF0.30255249397245043
aI0
aF0.32414624771859601
aI1
aF0.82121583699512812
aI3
aF0.88
aI2
aF0.95238095238095233
aI4
aF0.59090909090909094
aI1
aF1
aa(lp10
I1
aF0.51146825374683624
aI1
aF0.29032122481250788
aI1
aF0.62024549623901937
aI2
aF0.47826086956521741
aI4
aF1
aI4
aF1
aI1
aF0.7142857142857143
aa(lp11
I1
aF0.42373009484701241
aI0
aF0.29782674632273687
aI1
aF0.91022799702696278
aI3
aF0.95652173913043481
aI2
aF0.84615384615384615
aI1
aF0.54545454545454541
aI1
aF1
aa(lp12
I1
aF0.20832148734123368
aI0
aF0.3961476416335864
aI1
aF0.77080810161899227
aI3
aF0.73333333333333328
aI2
aF0.9375
aI4
aF0.9285714285714286
aI1
aF1
aa(lp13
I1
aF0.30668952311448838
aI0
aF0.1531274756203832
aI1
aF0.866887536018353
aI3
aF1
aI2
aF0.5
aI4
aF0.52000000000000002
aI1
aF1
aa(lp14
I1
aF0.68807752571249969
aI0
aF0.46330707447643515
aI0
aF0.18270443474174358
aI3
aF0.53658536585365857
aI2
aF0.92307692307692313
aI1
aF0
aI1
aF0.75
aa(lp15
I1
aF0.66961378838730923
aI0
aF0.40929391234570778
aI0
aF0.96890708818429694
aI3
aF0.61111111111111116
aI2
aF0.83333333333333337
aI1
aF0.75
aI1
aF0
aa(lp16
I1
aF0.32159912790414968
aI0
aF0.32064942247169703
aI1
aF0.37546809777015011
aI3
aF0.88
aI2
aF0.90909090909090906
aI4
aF1
aI1
aF0.57692307692307687
aa(lp17
I1
aF0.35965423954236264
aI0
aF0.52260727202888579
aI1
aF0.61423139526669257
aI3
aF0.52380952380952384
aI2
aF1
aI4
aF1
aI1
aF0.68181818181818177
aa(lp18
I1
aF0.74444361754010702
aI1
aF0.19396027560895934
aI1
aF0.96145415455969363
aI2
aF0.47826086956521741
aI4
aF0.92307692307692313
aI1
aF0.92307692307692313
aI1
aF1
aa(lp19
I1
aF0.31250370734430355
aI1
aF0.15739531061688483
aI1
aF0.81206343202410802
aI2
aF0.5
aI3
aF1
aI4
aF0.76470588235294112
aI1
aF1
aa(lp20
I1
aF0.3692912415650621
aI0
aF0.39005099175012359
aI1
aF0.57411952167922131
aI3
aF0.6875
aI2
aF0.9375
aI4
aF1
aI1
aF0.68181818181818177
aa(lp21
I1
aF0.22907937551726743
aI0
aF0.49562480250868501
aI1
aF0.58432235861152193
aI3
aF0.62857142857142856
aI2
aF1
aI4
aF1
aI1
aF0.68181818181818177
aa(lp22
I1
aF0.19553683654988563
aI0
aF0.42244746853107384
aI1
aF0.50279946376954521
aI3
aF0.70967741935483875
aI2
aF1
aI4
aF1
aI1
aF0.65217391304347827
aa(lp23
I1
aF0.48396776081649162
aI1
aF0.20867023033307108
aI0
aF0.21630144065552614
aI2
aF0.47826086956521741
aI4
aF1
aI4
aF1
aI1
aF0.65217391304347827
aa(lp24
I1
aF0.14810822922681599
aI0
aF0.25367455948497808
aI1
aF0.76406485319411899
aI3
aF0.94117647058823528
aI2
aF0.81481481481481477
aI4
aF0.80000000000000004
aI1
aF0.93333333333333335
aa(lp25
I1
aF0.18012427318811752
aI0
aF0.43134678490416278
aI1
aF0.77099754988408775
aI3
aF0.69999999999999996
aI2
aF1
aI4
aF0.8666666666666667
aI1
aF1
aa(lp26
I1
aF0.24097720718209736
aI0
aF0.37099847717182699
aI1
aF0.90329007173623876
aI3
aF0.73333333333333328
aI2
aF0.9375
aI4
aF0.52000000000000002
aI1
aF1
aa(lp27
I1
aF0.36724652358935539
aI0
aF0.41992840702700118
aI1
aF0.69937548469599098
aI3
aF0.66666666666666663
aI2
aF1
aI4
aF1
aI1
aF0.75
aa(lp28
I1
aF0.26643810853014649
aI0
aF0.35268573109662926
aI1
aF0.44564117674869286
aI3
aF0.7857142857142857
aI2
aF0.94444444444444442
aI4
aF1
aI1
aF0.59999999999999998
aa(lp29
I1
aF0.79118283282206414
aI1
aF0.16460263154456511
aI0
aF0.62231330396419482
aI2
aF0.48888888888888887
aI4
aF0.8666666666666667
aI1
aF1
aI1
aF0
aa(lp30
I1
aF0.18763898427390191
aI0
aF0.23529497325865067
aI0
aF0.42696868551582801
aI3
aF0.93333333333333335
aI2
aF0.70967741935483875
aI4
aF0.52380952380952384
aI1
aF0.7142857142857143
aa(lp31
I1
aF0.28908099603332482
aI0
aF0.40706451728173121
aI1
aF0.71116489925700554
aI3
aF0.70967741935483875
aI2
aF1
aI4
aF1
aI1
aF0.83333333333333337
aa(lp32
I1
aF0.36288542675637159
aI0
aF0.29351210889343726
aI1
aF0.59553729282108547
aI3
aF0.95652173913043481
aI2
aF0.88
aI4
aF1
aI1
aF0.68181818181818177
aa(lp33
I1
aF0.47114288672043425
aI0
aF0.27392154537029845
aI1
aF0.81992706134368143
aI3
aF0.95454545454545459
aI2
aF0.81481481481481477
aI4
aF0.55555555555555558
aI1
aF1
aa(lp34
I1
aF0.22495016707906235
aI0
aF0.095736660612599667
aI1
aF0.72835844032719821
aI1
aF0
aI2
aF0.47826086956521741
aI4
aF1
aI1
aF0.83333333333333337
aa(lp35
I1
aF0.2504016537398418
aI1
aF0.14719586580659816
aI1
aF0.36718124777254657
aI2
aF0.5
aI3
aF1
aI4
aF1
aI1
aF0.57692307692307687
aa(lp36
I1
aF0.20723769461966723
aI0
aF0.1426359764124826
aI1
aF0.81573311044400865
aI3
aF1
aI2
aF0.5
aI4
aF0.72222222222222221
aI1
aF1
aa(lp37
I1
aF0.19743920820086203
aI0
aF0.54308474096722881
aI0
aF0.19445905279569453
aI3
aF0.53658536585365857
aI2
aF1
aI4
aF1
aI1
aF0.55555555555555558
aa(lp38
I1
aF0.33650549397897733
aI1
aF0.13854490690058785
aI1
aF0.74147628102394525
aI2
aF0.52380952380952384
aI3
aF0.66666666666666663
aI4
aF0.90909090909090906
aI1
aF0.93333333333333335
aa(lp39
I1
aF0.22717137726952041
aI0
aF0.46426946092241272
aI1
aF0.71123061634843532
aI3
aF0.6470588235294118
aI2
aF1
aI4
aF1
aI1
aF0.83333333333333337
aa(lp40
I1
aF0.52390835728674767
aI0
aF0.46836930747683936
aI1
aF0.76864741803600589
aI3
aF0.5641025641025641
aI2
aF1
aI4
aF0.88888888888888884
aI1
aF1
aa(lp41
I1
aF0.6456234071137954
aI0
aF0.3467959371023972
aI1
aF0.74060943976659588
aI3
aF0.73333333333333328
aI2
aF0.82608695652173914
aI4
aF1
aI1
aF0.88235294117647056
aa(lp42
I1
aF0.37160216923247802
aI0
aF0.18660562500655109
aI1
aF0.72117197957062573
aI3
aF1
aI2
aF0.59459459459459463
aI4
aF1
aI1
aF0.83333333333333337
aa(lp43
I1
aF0.5034925095017142
aI0
aF0.18479072417412656
aI0
aF0.85596646260072218
aI3
aF1
aI2
aF0.55000000000000004
aI1
aF0.65217391304347827
aI1
aF0
aa(lp44
I1
aF0.39844402142661028
aI0
aF0.32914431649746567
aI0
aF0.2093313532270642
aI3
aF0.88
aI2
aF0.86956521739130432
aI4
aF1
aI1
aF0.625
aa(lp45
I1
aF0.15675872607594077
aI1
aF0.1139307310189086
aI1
aF0.33556809192473525
aI2
aF0.55263157894736847
aI3
aF0.83333333333333337
aI3
aF0.5
aI1
aF0.57692307692307687
aa(lp46
I1
aF0.65207198277530831
aI1
aF0.25713087933715861
aI1
aF0.70803253416746359
aI2
aF0.47826086956521741
aI4
aF1
aI4
aF1
aI1
aF0.78947368421052633
aa(lp47
I1
aF0.25694968879727775
aI0
aF0.32895395177089648
aI1
aF0.78741028056369133
aI3
aF0.88
aI2
aF0.95238095238095233
aI4
aF0.9285714285714286
aI1
aF1
aa(lp48
I1
aF0.36145910890109145
aI0
aF0.20875107004963722
aI1
aF0.74028812689495438
aI3
aF0.91666666666666663
aI2
aF0.61111111111111116
aI4
aF1
aI1
aF0.88235294117647056
aa(lp49
I1
aF0.69749005955195709
aI1
aF0.41889247807847063
aI1
aF0.88292570070805099
aI2
aF0.44897959183673469
aI4
aF1
aI1
aF0.70588235294117652
aI1
aF1
aa(lp50
I1
aF0.36249880322567263
aI0
aF0.44630376178662379
aI1
aF0.60817604213208465
aI3
aF0.6470588235294118
aI2
aF1
aI4
aF1
aI1
aF0.68181818181818177
aa(lp51
I1
aF0.2745725608079308
aI0
aF0.70626198363591286
aI1
aF0.68453936917659619
aI3
aF0.48888888888888887
aI2
aF1
aI4
aF1
aI1
aF0.75
aa(lp52
I1
aF0.24508156057835961
aI0
aF0.21986158254006882
aI1
aF0.86671056356455611
aI3
aF0.9285714285714286
aI2
aF0.6875
aI4
aF0.52000000000000002
aI1
aF1
aa(lp53
I1
aF0.41545233965703698
aI0
aF0.2781065616939179
aI1
aF0.84071935473406334
aI3
aF0.95454545454545459
aI2
aF0.81481481481481477
aI1
aF0.52380952380952384
aI1
aF1
aa(lp54
I1
aF0.30357562439511399
aI0
aF0.13023859472957311
aI1
aF0.64730259107338217
aI3
aF1
aI2
aF0.48888888888888887
aI4
aF1
aI1
aF0.7142857142857143
aa(lp55
I1
aF0.24910965312964617
aI0
aF0.31263519492444125
aI1
aF0.86646843653067229
aI3
aF0.95652173913043481
aI2
aF0.95652173913043481
aI4
aF0.52000000000000002
aI1
aF1
aa(lp56
I1
aF0.44728723447343732
aI0
aF0.60545254338493837
aI0
aF0.40585183699248317
aI3
aF0.46808510638297873
aI2
aF1
aI1
aF0.58823529411764708
aI1
aF0.625
aa(lp57
I1
aF0.33500460601138216
aI0
aF0.36995462102523857
aI1
aF0.69840649738143112
aI3
aF0.6875
aI2
aF0.9375
aI4
aF1
aI1
aF0.75
aa(lp58
I1
aF0.29439258620243258
aI0
aF0.29911783989137275
aI1
aF0.75596617488049611
aI3
aF0.95652173913043481
aI2
aF0.95652173913043481
aI4
aF0.92307692307692313
aI1
aF0.93333333333333335
aa(lp59
I1
aF0.26166896175755983
aI0
aF0.47394920757691472
aI1
aF0.92823566756523945
aI3
aF0.6470588235294118
aI2
aF1
aI4
aF0.52000000000000002
aI1
aF1
aa(lp60
I1
aF0.17385514616326925
aI0
aF0.10866777135693584
aI1
aF0.43545229116989914
aI1
aF0
aI2
aF0.48888888888888887
aI4
aF0.75
aI1
aF0.59999999999999998
aa(lp61
I1
aF0.17618075177785486
aI0
aF0.4572796426836695
aI1
aF0.51150463012249459
aI3
aF0.67741935483870963
aI2
aF1
aI4
aF0.83333333333333337
aI1
aF0.65217391304347827
aa(lp62
I1
aF0.78810009345657639
aI1
aF0.30021940854242746
aI0
aF0.68647451897780387
aI2
aF0.47826086956521741
aI4
aF0.9285714285714286
aI1
aF1
aI1
aF0
aa(lp63
I1
aF0.66702116976756598
aI0
aF0.27922615096843262
aI1
aF0.71568215842394478
aI3
aF0.875
aI2
aF0.75862068965517238
aI4
aF1
aI1
aF0.83333333333333337
aa(lp64
I1
aF0.30773176234972266
aI0
aF0.33507389644171137
aI1
aF0.58283253821179171
aI3
aF0.88
aI2
aF0.95238095238095233
aI4
aF1
aI1
aF0.68181818181818177
aa(lp65
I1
aF0.41217584372966187
aI0
aF0.47470468428055634
aI1
aF0.74998232613208571
aI3
aF0.61111111111111116
aI2
aF1
aI4
aF0.90909090909090906
aI1
aF0.93333333333333335
aa(lp66
I1
aF0.23211565391629085
aI1
aF0.067905635410190568
aI1
aF0.50926733625856291
aI2
aF0.83333333333333337
aI3
aF0.58823529411764708
aI4
aF1
aI1
aF0.65217391304347827
aa(lp67
I1
aF0.68125699216664404
aI0
aF0.34773929608178122
aI0
aF0.53046385244232341
aI3
aF0.70967741935483875
aI2
aF0.82608695652173914
aI1
aF0.72222222222222221
aI1
aF1
aa(lp68
I1
aF0.3223903840272867
aI0
aF0.51549081877068692
aI1
aF0.4616583585617049
aI3
aF0.55000000000000004
aI2
aF1
aI4
aF1
aI1
aF0.59999999999999998
aa(lp69
I1
aF0.26340199443598233
aI0
aF0.44590544632825924
aI1
aF0.68277497992068581
aI3
aF0.6875
aI2
aF1
aI4
aF1
aI1
aF0.75
aa(lp70
I1
aF0.52080080139670515
aI0
aF0.25364410218803257
aI1
aF0.81649497315922648
aI3
aF0.89473684210526316
aI2
aF0.6875
aI4
aF0.61538461538461542
aI1
aF1
aa(lp71
I1
aF0.30785995268794231
aI0
aF0.46569153837519794
aI1
aF0.56934006409702598
aI3
aF0.6470588235294118
aI2
aF1
aI4
aF1
aI1
aF0.68181818181818177
aa(lp72
I1
aF0.13315841825143393
aI0
aF0.24685844984701166
aI1
aF0.68492709511634231
aI3
aF0.93333333333333335
aI2
aF0.81481481481481477
aI4
aF0.66666666666666663
aI1
aF0.75
aa(lp73
I1
aF0.48130404518553227
aI1
aF0.36059893417949973
aI1
aF0.53464635206077482
aI2
aF0.45833333333333331
aI4
aF1
aI4
aF1
aI1
aF0.65217391304347827
aa(lp74
I1
aF0.30475848360071056
aI0
aF0.27804032219267194
aI1
aF0.78384275560076144
aI3
aF0.95454545454545459
aI2
aF0.91666666666666663
aI4
aF0.9285714285714286
aI1
aF1
aa(lp75
I1
aF0.28170728465677741
aI0
aF0.3179296744180663
aI1
aF0.57867720510448695
aI3
aF0.95652173913043481
aI2
aF0.95652173913043481
aI4
aF1
aI1
aF0.68181818181818177
aa(lp76
I1
aF0.82056560389066702
aI1
aF0.32714159528753062
aI0
aF0.39080852464177707
aI2
aF0.45833333333333331
aI4
aF0.57894736842105265
aI1
aF1
aI1
aF1
aa(lp77
I1
aF0.61995123185396839
aI0
aF0.31402060719765945
aI0
aF0.98711718028723205
aI3
aF0.88
aI2
aF0.7857142857142857
aI1
aF0.7142857142857143
aI1
aF0
aa(lp78
I1
aF0.39869900872804331
aI0
aF0.10858474974078147
aI0
aF0.31517122386138108
aI1
aF0
aI2
aF0.45833333333333331
aI1
aF0.69999999999999996
aI1
aF0.5
aa(lp79
I1
aF0.5654367639407889
aI0
aF0.47122685724057067
aI1
aF0.70146091227703133
aI3
aF0.5641025641025641
aI2
aF0.92307692307692313
aI4
aF1
aI1
aF0.75
aa(lp80
I1
aF0.40165328126942301
aI0
aF0.24038402946376602
aI1
aF0.90645531745123209
aI3
aF0.93333333333333335
aI2
aF0.66666666666666663
aI1
aF0.52173913043478259
aI1
aF1
aa(lp81
I1
aF0.31511448959410171
aI0
aF0.35018747127217043
aI1
aF0.32957756610921995
aI3
aF0.81481481481481477
aI2
aF0.94736842105263153
aI4
aF1
aI1
aF0.57692307692307687
aa(lp82
I1
aF0.55515497772297062
aI0
aF0.21721083377085582
aI1
aF0.81919421526724601
aI3
aF0.8666666666666667
aI2
aF0.61111111111111116
aI1
aF0.5
aI1
aF1
aa(lp83
I1
aF0.47630862605459712
aI0
aF0.28808035762818207
aI0
aF0.21504292313165563
aI3
aF0.95652173913043481
aI2
aF0.84615384615384615
aI4
aF1
aI1
aF0.65217391304347827
aa(lp84
I1
aF0.80410742223367571
aI1
aF0.10380662888585657
aI0
aF0.99784251478933428
aI2
aF0.61290322580645162
aI4
aF0.48275862068965519
aI1
aF1
aI1
aF0
aa(lp85
I1
aF0.27823386907026271
aI0
aF0.3747996323073578
aI1
aF0.46513809985199406
aI3
aF0.73333333333333328
aI2
aF0.9375
aI4
aF1
aI1
aF0.59999999999999998
aa(lp86
I1
aF0.14883905254285412
aI0
aF0.89195978687901989
aI1
aF0.76972116649813471
aI2
aF0.5
aI1
aF0
aI4
aF0.8125
aI1
aF1
aa(lp87
I0
aF0.25868550097009002
aI1
aF0.78220592253470733
aI1
aF0.58299706099933013
aI3
aF0.84999999999999998
aI1
aF1
aI2
aF0.66666666666666663
aI1
aF0.69999999999999996
aa(lp88
I1
aF0.57694564942579152
aI0
aF0.38367155899462468
aI1
aF0.66020348826603059
aI3
aF0.6470588235294118
aI2
aF0.83333333333333337
aI4
aF1
aI1
aF0.7142857142857143
aa(lp89
I1
aF0.75490063540473962
aI1
aF0.47221871008698535
aI0
aF0.39573156980081226
aI2
aF0.44897959183673469
aI4
aF0.90000000000000002
aI1
aF0.90000000000000002
aI1
aF1
aa(lp90
I1
aF0.35205299276279634
aI0
aF0.31575348329828057
aI1
aF0.62025344313093578
aI3
aF0.95652173913043481
aI2
aF0.88
aI4
aF1
aI1
aF0.7142857142857143
aa(lp91
I1
aF0.21062427883516577
aI0
aF0.33949528967531417
aI1
aF0.67745006877886993
aI3
aF0.88
aI2
aF0.95238095238095233
aI4
aF1
aI1
aF0.75
aa(lp92
I1
aF0.35616713359040864
aI0
aF0.34459836625333728
aI1
aF0.54699155277675726
aI3
aF0.81481481481481477
aI2
aF0.90476190476190477
aI4
aF1
aI1
aF0.65217391304347827
aa(lp93
I1
aF0.3155345913364529
aI0
aF0.36171448892698932
aI1
aF0.62099096491174899
aI3
aF0.73333333333333328
aI2
aF0.9375
aI4
aF1
aI1
aF0.7142857142857143
aa(lp94
I1
aF0.70689765360027446
aI0
aF0.36261683878326834
aI0
aF0.45414395631020621
aI3
aF0.61111111111111116
aI2
aF0.78947368421052633
aI1
aF0.73333333333333328
aI1
aF1
aa(lp95
I1
aF0.24842655677188963
aI0
aF0.27234621357520983
aI1
aF0.51812550493181553
aI3
aF0.95454545454545459
aI2
aF0.91666666666666663
aI4
aF1
aI1
aF0.65217391304347827
aa(lp96
I1
aF0.33651718824491295
aI0
aF0.18204133551556134
aI1
aF0.70516872238457717
aI3
aF1
aI2
aF0.59459459459459463
aI4
aF1
aI1
aF0.78947368421052633
aa(lp97
I1
aF0.14790635807430808
aI0
aF0.33583928588849465
aI1
aF0.45677767510760581
aI3
aF0.86956521739130432
aI2
aF0.95238095238095233
aI4
aF0.59999999999999998
aI1
aF0.59999999999999998
aa(lp98
I1
aF0.70977322748990868
aI1
aF0.30094776741161566
aI0
aF0.48620323759010309
aI2
aF0.47826086956521741
aI4
aF1
aI1
aF0.8125
aI1
aF1
aa(lp99
I1
aF0.35284511809874808
aI0
aF0.39353844518398728
aI1
aF0.53867635794397051
aI3
aF0.6875
aI2
aF0.9375
aI4
aF1
aI1
aF0.65217391304347827
aa(lp100
I0
aF0.26522715366819183
aI1
aF0.25259481229395619
aI1
aF0.36161516579508546
aI3
aF0.95238095238095233
aI1
aF0.5
aI2
aF0.81481481481481477
aI1
aF0.59090909090909094
aa(lp101
I1
aF0.19269401632487959
aI0
aF0.47105744315645448
aI1
aF0.71481928446280085
aI3
aF0.6470588235294118
aI2
aF1
aI4
aF1
aI1
aF0.83333333333333337
aa(lp102
I1
aF0.25488239688888326
aI0
aF0.35769199830176623
aI1
aF0.57799500248495472
aI3
aF0.7857142857142857
aI2
aF0.94444444444444442
aI4
aF1
aI1
aF0.68181818181818177
aa(lp103
I1
aF0.53789773519101647
aI0
aF0.25767798857951829
aI1
aF0.9451582903369895
aI3
aF0.89473684210526316
aI2
aF0.6875
aI1
aF0.59999999999999998
aI1
aF1
aa(lp104
I1
aF0.56405555513307937
aI0
aF0.36340874059910766
aI0
aF0.55953783437839233
aI3
aF0.6470588235294118
aI2
aF0.83333333333333337
aI1
aF0.65000000000000002
aI1
aF1
aa(lp105
I1
aF0.33532805138453226
aI0
aF0.45916806869316484
aI1
aF0.78982770335297103
aI3
aF0.6470588235294118
aI2
aF1
aI4
aF0.91666666666666663
aI1
aF1
aa(lp106
I1
aF0.40508203502727913
aI0
aF0.3629644103024704
aI1
aF0.57245224862349098
aI3
aF0.6875
aI2
aF0.9375
aI4
aF1
aI1
aF0.68181818181818177
aa(lp107
I1
aF0.21978835744625336
aI0
aF0.75633883632180388
aI1
aF0.57694289964851264
aI2
aF0.47826086956521741
aI1
aF0
aI4
aF1
aI1
aF0.68181818181818177
aa(lp108
I1
aF0.57201101298952628
aI1
aF0.29174697450075693
aI0
aF0.17445382713670676
aI2
aF0.47826086956521741
aI4
aF1
aI4
aF1
aI1
aF0.7142857142857143
aa(lp109
I1
aF0.19980401936412839
aI0
aF0.13453507423023137
aI1
aF0.50615458151127302
aI3
aF1
aI2
aF0.48888888888888887
aI4
aF1
aI1
aF0.65217391304347827
aa(lp110
I1
aF0.27862241155950718
aI0
aF0.4910647374673307
aI1
aF0.84581347211915925
aI3
aF0.62857142857142856
aI2
aF1
aI4
aF0.52000000000000002
aI1
aF1
aa(lp111
I1
aF0.22710301046371129
aI0
aF0.3377879405175902
aI1
aF0.68745082387675582
aI3
aF0.88
aI2
aF0.95238095238095233
aI4
aF1
aI1
aF0.75
aa(lp112
I1
aF0.32113835807987512
aI0
aF0.45600701013992717
aI1
aF0.60435753924900959
aI3
aF0.66666666666666663
aI2
aF1
aI4
aF1
aI1
aF0.68181818181818177
aa(lp113
I1
aF0.31076913796847516
aI0
aF0.31893107233036977
aI1
aF0.47153843530267237
aI3
aF0.91666666666666663
aI2
aF0.95454545454545459
aI4
aF1
aI1
aF0.59999999999999998
aa(lp114
I1
aF0.40350930266793961
aI0
aF0.47479959863002952
aI1
aF0.57834204876694051
aI3
aF0.61111111111111116
aI2
aF1
aI4
aF1
aI1
aF0.68181818181818177
aa(lp115
I1
aF0.37151066692889601
aI0
aF0.34006274515221813
aI1
aF0.89738052010823199
aI3
aF0.84615384615384615
aI2
aF0.90909090909090906
aI1
aF0.52173913043478259
aI1
aF1
aa(lp116
I1
aF0.31903778035278807
aI1
aF0.13766425189068698
aI1
aF0.48663533523034019
aI2
aF0.52380952380952384
aI3
aF1
aI4
aF1
aI1
aF0.625
aa(lp117
I1
aF0.73193557604700454
aI1
aF0.58863363330549012
aI0
aF0.39561531813300443
aI2
aF0.42307692307692307
aI4
aF1
aI1
aF0.83333333333333337
aI1
aF1
aa(lp118
I1
aF0.22587359713066413
aI0
aF0.76679484371861595
aI1
aF0.53507868958399452
aI2
aF0.47826086956521741
aI1
aF0
aI4
aF1
aI1
aF0.65217391304347827
aa(lp119
I1
aF0.37547039330255172
aI0
aF0.46084222152226495
aI1
aF0.78570734809455567
aI3
aF0.6470588235294118
aI2
aF1
aI4
aF0.91666666666666663
aI1
aF1
aa(lp120
I1
aF0.19066618358794019
aI0
aF0.35066178417623362
aI1
aF0.84599261853883345
aI3
aF0.7857142857142857
aI2
aF0.94444444444444442
aI4
aF0.52000000000000002
aI1
aF1
aa(lp121
I1
aF0.47972929283667709
aI0
aF0.29769935793655644
aI0
aF0.52974530807733911
aI3
aF0.95652173913043481
aI2
aF0.84615384615384615
aI1
aF0.59090909090909094
aI1
aF0.66666666666666663
aa(lp122
I1
aF0.74302796328723852
aI1
aF0.25064391977812639
aI0
aF0.91163020049419174
aI2
aF0.47826086956521741
aI4
aF0.92307692307692313
aI1
aF0.93333333333333335
aI1
aF0
aa(lp123
I1
aF0.43207622544013002
aI0
aF0.4579803172624094
aI1
aF0.66056091821114715
aI3
aF0.62857142857142856
aI2
aF1
aI4
aF1
aI1
aF0.7142857142857143
aa(lp124
I1
aF0.49759729243537176
aI0
aF0.49879189918614875
aI1
aF0.91103207230075745
aI3
aF0.5641025641025641
aI2
aF1
aI1
aF0.5714285714285714
aI1
aF1
aa(lp125
I1
aF0.39719126627737378
aI1
aF0.060367645266670822
aI1
aF0.66745745662943878
aI2
aF0.75
aI3
aF0.5
aI4
aF1
aI1
aF0.75
aa(lp126
I1
aF0.279635027845068
aI0
aF0.70909142475691322
aI1
aF0.76236938328308712
aI3
aF0.48888888888888887
aI2
aF1
aI4
aF0.92307692307692313
aI1
aF0.93333333333333335
aa(lp127
I1
aF0.28293968346179266
aI0
aF0.18257449066647413
aI1
aF0.3716237158494976
aI3
aF1
aI2
aF0.62857142857142856
aI4
aF1
aI1
aF0.57692307692307687
aa(lp128
I1
aF0.25013832249834889
aI0
aF0.30069771557961777
aI1
aF0.44657859099875863
aI3
aF0.95652173913043481
aI2
aF0.95652173913043481
aI4
aF1
aI1
aF0.59999999999999998
aa(lp129
I1
aF0.20409742982427115
aI0
aF0.30578934789731416
aI1
aF0.65580044491202949
aI3
aF0.95652173913043481
aI2
aF0.95652173913043481
aI4
aF1
aI1
aF0.7142857142857143
aa(lp130
I1
aF0.24799191525917619
aI0
aF0.3927557847378681
aI1
aF0.81978489102710705
aI3
aF0.73333333333333328
aI2
aF0.9375
aI4
aF0.61904761904761907
aI1
aF1
aa(lp131
I1
aF0.40219177285910779
aI0
aF0.32834307249304817
aI1
aF0.55913482060880637
aI3
aF0.88
aI2
aF0.86956521739130432
aI4
aF1
aI1
aF0.68181818181818177
aa(lp132
I1
aF0.27899263836514665
aI0
aF0.39859495307286896
aI1
aF0.39268723202272238
aI3
aF0.73333333333333328
aI2
aF0.9375
aI4
aF1
aI1
aF0.57692307692307687
aa(lp133
I1
aF0.37210672960649782
aI1
aF0.1255788382611801
aI1
aF0.5687349636008534
aI2
aF0.5641025641025641
aI3
aF0.77777777777777779
aI4
aF1
aI1
aF0.68181818181818177
aa(lp134
I1
aF0.28253577740538538
aI0
aF0.38529687528628376
aI1
aF0.7973515531824269
aI3
aF0.73333333333333328
aI2
aF0.9375
aI4
aF0.9285714285714286
aI1
aF1
aa(lp135
I1
aF0.62572589925989786
aI1
aF0.40387546705833233
aI0
aF0.89193272743828078
aI2
aF0.45833333333333331
aI4
aF1
aI1
aF0.7142857142857143
aI1
aF0
aa(lp136
I1
aF0.35202680688539989
aI0
aF0.42867386132279861
aI1
aF0.90415089854093922
aI3
aF0.66666666666666663
aI2
aF1
aI1
aF0.52173913043478259
aI1
aF1
aa(lp137
I1
aF0.14510728993837851
aI0
aF0.41804338515765138
aI1
aF0.59783052577599316
aI3
aF0.68965517241379315
aI2
aF1
aI4
aF0.75
aI1
aF0.68181818181818177
aa(lp138
I1
aF0.16410504938504256
aI0
aF0.67669870184337522
aI1
aF0.78153659001018005
aI2
aF0.47727272727272729
aI2
aF1
aI4
aF0.8666666666666667
aI1
aF1
aa(lp139
I1
aF0.44854715255052446
aI0
aF0.59909887246301197
aI1
aF0.76006142792096731
aI3
aF0.46808510638297873
aI2
aF1
aI4
aF0.90000000000000002
aI1
aF0.93333333333333335
aa(lp140
I1
aF0.31702280087707724
aI0
aF0.57093839178826566
aI1
aF0.79207484189683675
aI3
aF0.53658536585365857
aI2
aF1
aI4
aF0.9285714285714286
aI1
aF1
aa(lp141
I1
aF0.19694330454686837
aI0
aF0.33688984735550576
aI1
aF0.67698376726557452
aI3
aF0.88
aI2
aF0.95238095238095233
aI4
aF1
aI1
aF0.75
aa(lp142
I1
aF0.26030922259034328
aI1
aF0.085433846451860362
aI1
aF0.73669489317223535
aI2
aF0.77777777777777779
aI3
aF0.6428571428571429
aI4
aF1
aI1
aF0.88235294117647056
aa(lp143
I1
aF0.28274752262290181
aI0
aF0.37873117715129123
aI1
aF0.72281416916363506
aI3
aF0.73333333333333328
aI2
aF0.9375
aI4
aF1
aI1
aF0.83333333333333337
aa(lp144
I1
aF0.10173301214646946
aI0
aF0.20880857715214707
aI1
aF0.32228290099904855
aI3
aF1
aI2
aF0.75
aI3
aF0.61111111111111116
aI1
aF0.57692307692307687
aa(lp145
I1
aF0.21306820998893006
aI0
aF0.51589732086529283
aI1
aF0.55109667894657044
aI3
aF0.57894736842105265
aI2
aF1
aI4
aF1
aI1
aF0.65217391304347827
aa(lp146
I1
aF0.20492529287878958
aI0
aF0.27981719134995042
aI1
aF0.42242308492752745
aI3
aF0.95454545454545459
aI2
aF0.91666666666666663
aI4
aF1
aI1
aF0.59999999999999998
aa(lp147
I1
aF0.38240280459587339
aI1
aF0.28515424236299347
aI1
aF0.69575905018572948
aI2
aF0.47826086956521741
aI4
aF1
aI4
aF1
aI1
aF0.75
aa(lp148
I1
aF0.60352731008005311
aI0
aF0.40935944080019515
aI1
aF0.81126408194749466
aI3
aF0.62857142857142856
aI2
aF0.88235294117647056
aI4
aF0.69999999999999996
aI1
aF1
aa(lp149
I1
aF0.17399397516051796
aI0
aF0.28419500458326441
aI1
aF0.78728391092990868
aI3
aF0.95454545454545459
aI2
aF0.95652173913043481
aI4
aF0.8666666666666667
aI1
aF1
aa(lp150
I1
aF0.45132533642638084
aI0
aF0.48630683869510349
aI0
aF0.53745724749661683
aI3
aF0.59459459459459463
aI2
aF1
aI1
aF0.59090909090909094
aI1
aF0.66666666666666663
aa(lp151
I1
aF0.34833898087679793
aI0
aF0.25331108069564989
aI1
aF0.55150512640552463
aI3
aF0.94444444444444442
aI2
aF0.73333333333333328
aI4
aF1
aI1
aF0.65217391304347827
aa(lp152
I1
aF0.60509253666213603
aI0
aF0.47333288393610273
aI0
aF0.5163895211587114
aI3
aF0.5641025641025641
aI2
aF0.92307692307692313
aI1
aF0.65000000000000002
aI1
aF1
aa(lp153
I1
aF0.24366257859841467
aI0
aF0.15864332225818945
aI1
aF0.55198600601537107
aI3
aF1
aI2
aF0.5
aI4
aF1
aI1
aF0.65217391304347827
aa(lp154
I1
aF0.27932877522890187
aI0
aF0.17674099019208778
aI1
aF0.74332735489309321
aI3
aF1
aI2
aF0.59459459459459463
aI4
aF0.92307692307692313
aI1
aF0.93333333333333335
aa(lp155
I1
aF0.59582914604612935
aI0
aF0.29675443018227587
aI1
aF0.83116110472341342
aI3
aF0.91666666666666663
aI2
aF0.7857142857142857
aI1
aF0.5625
aI1
aF1
aa(lp156
I1
aF0.40177166728278091
aI0
aF0.20618114706143009
aI1
aF0.75482043654132613
aI3
aF0.91666666666666663
aI2
aF0.61111111111111116
aI4
aF0.90909090909090906
aI1
aF0.93333333333333335
aa(lp157
I1
aF0.31010536318140314
aI0
aF0.43843118598865993
aI1
aF0.45716351863212579
aI3
aF0.6875
aI2
aF1
aI4
aF1
aI1
aF0.59999999999999998
aa(lp158
I1
aF0.51645262345163945
aI0
aF0.4507837229334658
aI1
aF0.78395408460783389
aI3
aF0.59459459459459463
aI2
aF1
aI4
aF0.88888888888888884
aI1
aF1
aa(lp159
I1
aF0.5409509955097489
aI0
aF0.32226239601334683
aI1
aF0.75086792149260173
aI3
aF0.81481481481481477
aI2
aF0.83333333333333337
aI4
aF0.875
aI1
aF0.93333333333333335
aa(lp160
I1
aF0.28879843194928256
aI0
aF0.42804903296751007
aI1
aF0.45210171660528164
aI3
aF0.70967741935483875
aI2
aF1
aI4
aF1
aI1
aF0.59999999999999998
aa(lp161
I1
aF0.14806575428377289
aI0
aF0.24178288126935088
aI1
aF0.72610957734794657
aI3
aF0.93333333333333335
aI2
aF0.75862068965517238
aI4
aF0.83333333333333337
aI1
aF0.83333333333333337
aa(lp162
I1
aF0.16649087173781418
aI0
aF0.25553876898667449
aI1
aF0.68580617161722413
aI3
aF0.94444444444444442
aI2
aF0.81481481481481477
aI4
aF0.88888888888888884
aI1
aF0.75
aa(lp163
I1
aF0.14449789602373819
aI0
aF0.44504266009415516
aI1
aF0.80370980062434627
aI3
aF0.65517241379310343
aI2
aF1
aI4
aF0.76470588235294112
aI1
aF1
aa(lp164
I1
aF0.20474775254685273
aI0
aF0.17151674705612108
aI1
aF0.49543596974281967
aI3
aF1
aI2
aF0.57894736842105265
aI4
aF1
aI1
aF0.625
aa(lp165
I1
aF0.34377174434577373
aI0
aF0.34250046325949191
aI1
aF0.64710189032461862
aI3
aF0.84615384615384615
aI2
aF0.90909090909090906
aI4
aF1
aI1
aF0.7142857142857143
aa(lp166
I1
aF0.61905543004039243
aI0
aF0.26873576548632538
aI1
aF0.8085727513624823
aI3
aF0.875
aI2
aF0.75862068965517238
aI4
aF0.75
aI1
aF1
aa(lp167
I1
aF0.77627783449737098
aI1
aF0.46685914544812368
aI0
aF0.91695080149534836
aI2
aF0.44897959183673469
aI4
aF0.90909090909090906
aI1
aF1
aI1
aF0
aa(lp168
I1
aF0.44098074398427189
aI0
aF0.39937333146769716
aI0
aF0.33907617486179131
aI3
aF0.66666666666666663
aI2
aF0.9375
aI1
aF0.61538461538461542
aI1
aF0.58333333333333337
aa(lp169
I1
aF0.74081904620956174
aI1
aF0.15624934064838136
aI1
aF0.97034910129694429
aI2
aF0.5
aI4
aF0.84615384615384615
aI1
aF0.8666666666666667
aI1
aF1
aa(lp170
I1
aF0.42065101788907677
aI0
aF0.31999453209323558
aI1
aF0.95090414219794006
aI3
aF0.84615384615384615
aI2
aF0.86956521739130432
aI1
aF0.56521739130434778
aI1
aF1
aa(lp171
I1
aF0.49374470767600709
aI0
aF0.46873864158008616
aI1
aF0.54064549363801895
aI3
aF0.57894736842105265
aI2
aF1
aI4
aF1
aI1
aF0.65217391304347827
aa(lp172
I1
aF0.48142571058897943
aI0
aF0.49329801724301592
aI1
aF0.6710945785616248
aI3
aF0.57894736842105265
aI2
aF1
aI4
aF1
aI1
aF0.75
aa(lp173
I1
aF0.53812978577435189
aI0
aF0.45943097931225718
aI1
aF0.72064248128024133
aI3
aF0.59459459459459463
aI2
aF1
aI4
aF1
aI1
aF0.83333333333333337
aa(lp174
I1
aF0.42647519022041935
aI0
aF0.18645321281575888
aI1
aF0.73706084558289875
aI3
aF1
aI2
aF0.57894736842105265
aI4
aF1
aI1
aF0.88235294117647056
aa(lp175
I1
aF0.26106650529840014
aI0
aF0.31243050145643714
aI1
aF0.60115956592588304
aI3
aF0.95652173913043481
aI2
aF0.95652173913043481
aI4
aF1
aI1
aF0.68181818181818177
aa(lp176
I1
aF0.2456883587990063
aI0
aF0.41254587967252887
aI1
aF0.51685204125085171
aI3
aF0.70967741935483875
aI2
aF1
aI4
aF1
aI1
aF0.65217391304347827
aa.